Archive member included because of file (symbol)

..\..\..\..\..\..\..\Program Files (x86)\GNU Tools ARM Embedded\4.8 2014q3\arm-none-eabi\lib\armv7e-m\softfp\libm.a(lib_a-s_sin.o)
                              ..\obj\Biblioteka_Kalendarz.o (sin)
..\..\..\..\..\..\..\Program Files (x86)\GNU Tools ARM Embedded\4.8 2014q3\arm-none-eabi\lib\armv7e-m\softfp\libm.a(lib_a-e_rem_pio2.o)
                              ..\..\..\..\..\..\..\Program Files (x86)\GNU Tools ARM Embedded\4.8 2014q3\arm-none-eabi\lib\armv7e-m\softfp\libm.a(lib_a-s_sin.o) (__ieee754_rem_pio2)
..\..\..\..\..\..\..\Program Files (x86)\GNU Tools ARM Embedded\4.8 2014q3\arm-none-eabi\lib\armv7e-m\softfp\libm.a(lib_a-k_cos.o)
                              ..\..\..\..\..\..\..\Program Files (x86)\GNU Tools ARM Embedded\4.8 2014q3\arm-none-eabi\lib\armv7e-m\softfp\libm.a(lib_a-s_sin.o) (__kernel_cos)
..\..\..\..\..\..\..\Program Files (x86)\GNU Tools ARM Embedded\4.8 2014q3\arm-none-eabi\lib\armv7e-m\softfp\libm.a(lib_a-k_rem_pio2.o)
                              ..\..\..\..\..\..\..\Program Files (x86)\GNU Tools ARM Embedded\4.8 2014q3\arm-none-eabi\lib\armv7e-m\softfp\libm.a(lib_a-e_rem_pio2.o) (__kernel_rem_pio2)
..\..\..\..\..\..\..\Program Files (x86)\GNU Tools ARM Embedded\4.8 2014q3\arm-none-eabi\lib\armv7e-m\softfp\libm.a(lib_a-k_sin.o)
                              ..\..\..\..\..\..\..\Program Files (x86)\GNU Tools ARM Embedded\4.8 2014q3\arm-none-eabi\lib\armv7e-m\softfp\libm.a(lib_a-s_sin.o) (__kernel_sin)
..\..\..\..\..\..\..\Program Files (x86)\GNU Tools ARM Embedded\4.8 2014q3\arm-none-eabi\lib\armv7e-m\softfp\libm.a(lib_a-s_fabs.o)
                              ..\..\..\..\..\..\..\Program Files (x86)\GNU Tools ARM Embedded\4.8 2014q3\arm-none-eabi\lib\armv7e-m\softfp\libm.a(lib_a-e_rem_pio2.o) (fabs)
..\..\..\..\..\..\..\Program Files (x86)\GNU Tools ARM Embedded\4.8 2014q3\arm-none-eabi\lib\armv7e-m\softfp\libm.a(lib_a-s_floor.o)
                              ..\..\..\..\..\..\..\Program Files (x86)\GNU Tools ARM Embedded\4.8 2014q3\arm-none-eabi\lib\armv7e-m\softfp\libm.a(lib_a-k_rem_pio2.o) (floor)
..\..\..\..\..\..\..\Program Files (x86)\GNU Tools ARM Embedded\4.8 2014q3\arm-none-eabi\lib\armv7e-m\softfp\libm.a(lib_a-s_scalbn.o)
                              ..\..\..\..\..\..\..\Program Files (x86)\GNU Tools ARM Embedded\4.8 2014q3\arm-none-eabi\lib\armv7e-m\softfp\libm.a(lib_a-k_rem_pio2.o) (scalbn)
..\..\..\..\..\..\..\Program Files (x86)\GNU Tools ARM Embedded\4.8 2014q3\arm-none-eabi\lib\armv7e-m\softfp\libm.a(lib_a-s_copysign.o)
                              ..\..\..\..\..\..\..\Program Files (x86)\GNU Tools ARM Embedded\4.8 2014q3\arm-none-eabi\lib\armv7e-m\softfp\libm.a(lib_a-s_scalbn.o) (copysign)
c:/program files (x86)/gnu tools arm embedded/4.8 2014q3/bin/../lib/gcc/arm-none-eabi/4.8.4/armv7-m\libgcc.a(_arm_addsubdf3.o)
                              ..\..\..\..\..\..\..\Program Files (x86)\GNU Tools ARM Embedded\4.8 2014q3\arm-none-eabi\lib\armv7e-m\softfp\libm.a(lib_a-s_sin.o) (__aeabi_dsub)
c:/program files (x86)/gnu tools arm embedded/4.8 2014q3/bin/../lib/gcc/arm-none-eabi/4.8.4/armv7-m\libgcc.a(_arm_muldivdf3.o)
                              ..\obj\Biblioteka_Kalendarz.o (__aeabi_dmul)
c:/program files (x86)/gnu tools arm embedded/4.8 2014q3/bin/../lib/gcc/arm-none-eabi/4.8.4/armv7-m\libgcc.a(_arm_cmpdf2.o)
                              ..\..\..\..\..\..\..\Program Files (x86)\GNU Tools ARM Embedded\4.8 2014q3\arm-none-eabi\lib\armv7e-m\softfp\libm.a(lib_a-e_rem_pio2.o) (__aeabi_dcmpeq)
c:/program files (x86)/gnu tools arm embedded/4.8 2014q3/bin/../lib/gcc/arm-none-eabi/4.8.4/armv7-m\libgcc.a(_arm_fixdfsi.o)
                              ..\..\..\..\..\..\..\Program Files (x86)\GNU Tools ARM Embedded\4.8 2014q3\arm-none-eabi\lib\armv7e-m\softfp\libm.a(lib_a-e_rem_pio2.o) (__aeabi_d2iz)
c:/program files (x86)/gnu tools arm embedded/4.8 2014q3/bin/../lib/gcc/arm-none-eabi/4.8.4/armv7-m\libgcc.a(_arm_truncdfsf2.o)
                              ..\obj\Biblioteka_Kalendarz.o (__aeabi_d2f)
c:/program files (x86)/gnu tools arm embedded/4.8 2014q3/bin/../lib/gcc/arm-none-eabi/4.8.4/armv7-m\libgcc.a(_arm_fixsfsi.o)
                              ..\obj\Biblioteka_Kalendarz.o (__aeabi_f2iz)
..\..\..\..\..\..\..\Program Files (x86)\GNU Tools ARM Embedded\4.8 2014q3\arm-none-eabi\lib\armv7e-m\softfp\libg.a(lib_a-atoi.o)
                              ..\obj\Biblioteka_Kalendarz.o (atoi)
..\..\..\..\..\..\..\Program Files (x86)\GNU Tools ARM Embedded\4.8 2014q3\arm-none-eabi\lib\armv7e-m\softfp\libg.a(lib_a-strtol.o)
                              ..\..\..\..\..\..\..\Program Files (x86)\GNU Tools ARM Embedded\4.8 2014q3\arm-none-eabi\lib\armv7e-m\softfp\libg.a(lib_a-atoi.o) (_strtol_r)
..\..\..\..\..\..\..\Program Files (x86)\GNU Tools ARM Embedded\4.8 2014q3\arm-none-eabi\lib\armv7e-m\softfp\libg.a(lib_a-ctype_.o)
                              ..\..\..\..\..\..\..\Program Files (x86)\GNU Tools ARM Embedded\4.8 2014q3\arm-none-eabi\lib\armv7e-m\softfp\libg.a(lib_a-strtol.o) (__ctype_ptr__)

Allocating common symbols
Common symbol       size              file

RTC_ActualCallendarStruct
                    0x14              ..\obj\stm32f10x_it.o
RTC_AlarmTimeStruct
                    0x3               ..\obj\stm32f10x_it.o
RTC_ActualTimeStruct
                    0x3               ..\obj\main.o
Tmux                0x4               ..\obj\main.o
tik                 0x4               ..\obj\main.o
eTrybPracy          0x1               ..\obj\main.o

Discarded input sections

 .text          0x00000000        0x0 ..\obj\stm32f10x_rtc.o
 .data          0x00000000        0x0 ..\obj\stm32f10x_rtc.o
 .bss           0x00000000        0x0 ..\obj\stm32f10x_rtc.o
 .text.RTC_SetAlarm
                0x00000000       0x2c ..\obj\stm32f10x_rtc.o
 .text.RTC_GetDivider
                0x00000000       0x38 ..\obj\stm32f10x_rtc.o
 .text.RTC_GetFlagStatus
                0x00000000       0x3c ..\obj\stm32f10x_rtc.o
 .text.RTC_ClearFlag
                0x00000000       0x2c ..\obj\stm32f10x_rtc.o
 .text          0x00000000        0x0 ..\obj\stm32f10x_tim.o
 .data          0x00000000        0x0 ..\obj\stm32f10x_tim.o
 .bss           0x00000000        0x0 ..\obj\stm32f10x_tim.o
 .text.TIM_OC1Init
                0x00000000      0x118 ..\obj\stm32f10x_tim.o
 .text.TIM_OC2Init
                0x00000000      0x110 ..\obj\stm32f10x_tim.o
 .text.TIM_OC3Init
                0x00000000      0x10c ..\obj\stm32f10x_tim.o
 .text.TIM_OC4Init
                0x00000000       0xd0 ..\obj\stm32f10x_tim.o
 .text.TIM_ICInit
                0x00000000       0xa8 ..\obj\stm32f10x_tim.o
 .text.TIM_PWMIConfig
                0x00000000       0xb8 ..\obj\stm32f10x_tim.o
 .text.TIM_BDTRConfig
                0x00000000       0x50 ..\obj\stm32f10x_tim.o
 .text.TIM_TimeBaseStructInit
                0x00000000       0x34 ..\obj\stm32f10x_tim.o
 .text.TIM_OCStructInit
                0x00000000       0x44 ..\obj\stm32f10x_tim.o
 .text.TIM_ICStructInit
                0x00000000       0x30 ..\obj\stm32f10x_tim.o
 .text.TIM_BDTRStructInit
                0x00000000       0x3c ..\obj\stm32f10x_tim.o
 .text.TIM_CtrlPWMOutputs
                0x00000000       0x4c ..\obj\stm32f10x_tim.o
 .text.TIM_GenerateEvent
                0x00000000       0x1c ..\obj\stm32f10x_tim.o
 .text.TIM_DMAConfig
                0x00000000       0x28 ..\obj\stm32f10x_tim.o
 .text.TIM_DMACmd
                0x00000000       0x48 ..\obj\stm32f10x_tim.o
 .text.TIM_InternalClockConfig
                0x00000000       0x24 ..\obj\stm32f10x_tim.o
 .text.TIM_ITRxExternalClockConfig
                0x00000000       0x2c ..\obj\stm32f10x_tim.o
 .text.TIM_TIxExternalClockConfig
                0x00000000       0x54 ..\obj\stm32f10x_tim.o
 .text.TIM_ETRClockMode1Config
                0x00000000       0x50 ..\obj\stm32f10x_tim.o
 .text.TIM_ETRClockMode2Config
                0x00000000       0x30 ..\obj\stm32f10x_tim.o
 .text.TIM_ETRConfig
                0x00000000       0x48 ..\obj\stm32f10x_tim.o
 .text.TIM_PrescalerConfig
                0x00000000       0x28 ..\obj\stm32f10x_tim.o
 .text.TIM_CounterModeConfig
                0x00000000       0x38 ..\obj\stm32f10x_tim.o
 .text.TIM_SelectInputTrigger
                0x00000000       0x38 ..\obj\stm32f10x_tim.o
 .text.TIM_EncoderInterfaceConfig
                0x00000000       0x8c ..\obj\stm32f10x_tim.o
 .text.TIM_ForcedOC1Config
                0x00000000       0x38 ..\obj\stm32f10x_tim.o
 .text.TIM_ForcedOC2Config
                0x00000000       0x3c ..\obj\stm32f10x_tim.o
 .text.TIM_ForcedOC3Config
                0x00000000       0x38 ..\obj\stm32f10x_tim.o
 .text.TIM_ForcedOC4Config
                0x00000000       0x3c ..\obj\stm32f10x_tim.o
 .text.TIM_ARRPreloadConfig
                0x00000000       0x40 ..\obj\stm32f10x_tim.o
 .text.TIM_SelectCOM
                0x00000000       0x40 ..\obj\stm32f10x_tim.o
 .text.TIM_SelectCCDMA
                0x00000000       0x40 ..\obj\stm32f10x_tim.o
 .text.TIM_CCPreloadControl
                0x00000000       0x40 ..\obj\stm32f10x_tim.o
 .text.TIM_OC1PreloadConfig
                0x00000000       0x38 ..\obj\stm32f10x_tim.o
 .text.TIM_OC2PreloadConfig
                0x00000000       0x3c ..\obj\stm32f10x_tim.o
 .text.TIM_OC3PreloadConfig
                0x00000000       0x38 ..\obj\stm32f10x_tim.o
 .text.TIM_OC4PreloadConfig
                0x00000000       0x3c ..\obj\stm32f10x_tim.o
 .text.TIM_OC1FastConfig
                0x00000000       0x38 ..\obj\stm32f10x_tim.o
 .text.TIM_OC2FastConfig
                0x00000000       0x3c ..\obj\stm32f10x_tim.o
 .text.TIM_OC3FastConfig
                0x00000000       0x38 ..\obj\stm32f10x_tim.o
 .text.TIM_OC4FastConfig
                0x00000000       0x3c ..\obj\stm32f10x_tim.o
 .text.TIM_ClearOC1Ref
                0x00000000       0x38 ..\obj\stm32f10x_tim.o
 .text.TIM_ClearOC2Ref
                0x00000000       0x3c ..\obj\stm32f10x_tim.o
 .text.TIM_ClearOC3Ref
                0x00000000       0x38 ..\obj\stm32f10x_tim.o
 .text.TIM_ClearOC4Ref
                0x00000000       0x3c ..\obj\stm32f10x_tim.o
 .text.TIM_OC1PolarityConfig
                0x00000000       0x38 ..\obj\stm32f10x_tim.o
 .text.TIM_OC1NPolarityConfig
                0x00000000       0x38 ..\obj\stm32f10x_tim.o
 .text.TIM_OC2PolarityConfig
                0x00000000       0x3c ..\obj\stm32f10x_tim.o
 .text.TIM_OC2NPolarityConfig
                0x00000000       0x3c ..\obj\stm32f10x_tim.o
 .text.TIM_OC3PolarityConfig
                0x00000000       0x3c ..\obj\stm32f10x_tim.o
 .text.TIM_OC3NPolarityConfig
                0x00000000       0x3c ..\obj\stm32f10x_tim.o
 .text.TIM_OC4PolarityConfig
                0x00000000       0x3c ..\obj\stm32f10x_tim.o
 .text.TIM_CCxCmd
                0x00000000       0x54 ..\obj\stm32f10x_tim.o
 .text.TIM_CCxNCmd
                0x00000000       0x54 ..\obj\stm32f10x_tim.o
 .text.TIM_SelectOCxM
                0x00000000       0xa8 ..\obj\stm32f10x_tim.o
 .text.TIM_UpdateDisableConfig
                0x00000000       0x40 ..\obj\stm32f10x_tim.o
 .text.TIM_UpdateRequestConfig
                0x00000000       0x40 ..\obj\stm32f10x_tim.o
 .text.TIM_SelectHallSensor
                0x00000000       0x40 ..\obj\stm32f10x_tim.o
 .text.TIM_SelectOnePulseMode
                0x00000000       0x38 ..\obj\stm32f10x_tim.o
 .text.TIM_SelectOutputTrigger
                0x00000000       0x38 ..\obj\stm32f10x_tim.o
 .text.TIM_SelectSlaveMode
                0x00000000       0x38 ..\obj\stm32f10x_tim.o
 .text.TIM_SelectMasterSlaveMode
                0x00000000       0x38 ..\obj\stm32f10x_tim.o
 .text.TIM_SetCounter
                0x00000000       0x1c ..\obj\stm32f10x_tim.o
 .text.TIM_SetAutoreload
                0x00000000       0x1c ..\obj\stm32f10x_tim.o
 .text.TIM_SetCompare1
                0x00000000       0x1c ..\obj\stm32f10x_tim.o
 .text.TIM_SetCompare2
                0x00000000       0x1c ..\obj\stm32f10x_tim.o
 .text.TIM_SetCompare3
                0x00000000       0x1c ..\obj\stm32f10x_tim.o
 .text.TIM_SetCompare4
                0x00000000       0x20 ..\obj\stm32f10x_tim.o
 .text.TIM_SetIC1Prescaler
                0x00000000       0x38 ..\obj\stm32f10x_tim.o
 .text.TIM_SetIC2Prescaler
                0x00000000       0x3c ..\obj\stm32f10x_tim.o
 .text.TIM_SetIC3Prescaler
                0x00000000       0x38 ..\obj\stm32f10x_tim.o
 .text.TIM_SetIC4Prescaler
                0x00000000       0x3c ..\obj\stm32f10x_tim.o
 .text.TIM_SetClockDivision
                0x00000000       0x38 ..\obj\stm32f10x_tim.o
 .text.TIM_GetCapture1
                0x00000000       0x1c ..\obj\stm32f10x_tim.o
 .text.TIM_GetCapture2
                0x00000000       0x1c ..\obj\stm32f10x_tim.o
 .text.TIM_GetCapture3
                0x00000000       0x1c ..\obj\stm32f10x_tim.o
 .text.TIM_GetCapture4
                0x00000000       0x1c ..\obj\stm32f10x_tim.o
 .text.TIM_GetCounter
                0x00000000       0x1c ..\obj\stm32f10x_tim.o
 .text.TIM_GetPrescaler
                0x00000000       0x1c ..\obj\stm32f10x_tim.o
 .text.TIM_GetFlagStatus
                0x00000000       0x38 ..\obj\stm32f10x_tim.o
 .text.TIM_ClearFlag
                0x00000000       0x20 ..\obj\stm32f10x_tim.o
 .text.TI1_Config
                0x00000000       0xd4 ..\obj\stm32f10x_tim.o
 .text.TI2_Config
                0x00000000       0xe8 ..\obj\stm32f10x_tim.o
 .text.TI3_Config
                0x00000000       0xe0 ..\obj\stm32f10x_tim.o
 .text.TI4_Config
                0x00000000       0xec ..\obj\stm32f10x_tim.o
 .text          0x00000000        0x0 ..\obj\RTC_TimeAndCallendar.o
 .data          0x00000000        0x0 ..\obj\RTC_TimeAndCallendar.o
 .bss           0x00000000        0x0 ..\obj\RTC_TimeAndCallendar.o
 .rodata        0x00000000       0x20 ..\obj\RTC_TimeAndCallendar.o
 .text.RTC_GetDateTimeString
                0x00000000       0x54 ..\obj\RTC_TimeAndCallendar.o
 .text          0x00000000        0x0 ..\obj\system_stm32f10x.o
 .data          0x00000000       0x14 ..\obj\system_stm32f10x.o
 .bss           0x00000000        0x0 ..\obj\system_stm32f10x.o
 .text.SystemCoreClockUpdate
                0x00000000       0xd8 ..\obj\system_stm32f10x.o
 .text          0x00000000        0x0 ..\obj\stm32f10x_pwr.o
 .data          0x00000000        0x0 ..\obj\stm32f10x_pwr.o
 .bss           0x00000000        0x0 ..\obj\stm32f10x_pwr.o
 .text.PWR_DeInit
                0x00000000       0x1c ..\obj\stm32f10x_pwr.o
 .text.PWR_PVDCmd
                0x00000000       0x20 ..\obj\stm32f10x_pwr.o
 .text.PWR_PVDLevelConfig
                0x00000000       0x38 ..\obj\stm32f10x_pwr.o
 .text.PWR_WakeUpPinCmd
                0x00000000       0x20 ..\obj\stm32f10x_pwr.o
 .text.PWR_EnterSTOPMode
                0x00000000       0x64 ..\obj\stm32f10x_pwr.o
 .text.PWR_EnterSTANDBYMode
                0x00000000       0x3c ..\obj\stm32f10x_pwr.o
 .text.PWR_GetFlagStatus
                0x00000000       0x34 ..\obj\stm32f10x_pwr.o
 .text.PWR_ClearFlag
                0x00000000       0x24 ..\obj\stm32f10x_pwr.o
 .text          0x00000000        0x0 ..\obj\startup_stm32f10x_md.o
 .data          0x00000000        0x0 ..\obj\startup_stm32f10x_md.o
 .bss           0x00000000        0x0 ..\obj\startup_stm32f10x_md.o
 .text          0x00000000        0x0 ..\obj\stm32f10x_gpio.o
 .data          0x00000000        0x0 ..\obj\stm32f10x_gpio.o
 .bss           0x00000000        0x0 ..\obj\stm32f10x_gpio.o
 .text.GPIO_DeInit
                0x00000000       0xe4 ..\obj\stm32f10x_gpio.o
 .text.GPIO_AFIODeInit
                0x00000000       0x18 ..\obj\stm32f10x_gpio.o
 .text.GPIO_StructInit
                0x00000000       0x28 ..\obj\stm32f10x_gpio.o
 .text.GPIO_ReadInputData
                0x00000000       0x1c ..\obj\stm32f10x_gpio.o
 .text.GPIO_ReadOutputData
                0x00000000       0x1c ..\obj\stm32f10x_gpio.o
 .text.GPIO_SetBits
                0x00000000       0x1c ..\obj\stm32f10x_gpio.o
 .text.GPIO_ResetBits
                0x00000000       0x1c ..\obj\stm32f10x_gpio.o
 .text.GPIO_Write
                0x00000000       0x1c ..\obj\stm32f10x_gpio.o
 .text.GPIO_PinLockConfig
                0x00000000       0x44 ..\obj\stm32f10x_gpio.o
 .text.GPIO_EventOutputConfig
                0x00000000       0x48 ..\obj\stm32f10x_gpio.o
 .text.GPIO_EventOutputCmd
                0x00000000       0x20 ..\obj\stm32f10x_gpio.o
 .text.GPIO_ETH_MediaInterfaceConfig
                0x00000000       0x1c ..\obj\stm32f10x_gpio.o
 .text          0x00000000        0x0 ..\obj\system_init.o
 .data          0x00000000        0x0 ..\obj\system_init.o
 .bss           0x00000000        0x0 ..\obj\system_init.o
 .text          0x00000000        0x0 ..\obj\Delays.o
 .data          0x00000000        0x0 ..\obj\Delays.o
 .bss           0x00000000        0x0 ..\obj\Delays.o
 .text.NVIC_SetPriority
                0x00000000       0x54 ..\obj\Delays.o
 .text.SysTick_Config
                0x00000000       0x44 ..\obj\Delays.o
 .text.Delay_Init
                0x00000000        0xc ..\obj\Delays.o
 .text.Delay_ms
                0x00000000       0x94 ..\obj\Delays.o
 .text.Delay_us
                0x00000000       0x58 ..\obj\Delays.o
 .text          0x00000000        0x0 ..\obj\main.o
 .data          0x00000000        0x0 ..\obj\main.o
 .bss           0x00000000        0x0 ..\obj\main.o
 .text          0x00000000        0x0 ..\obj\printf.o
 .data          0x00000000      0x430 ..\obj\printf.o
 .bss           0x00000000        0x0 ..\obj\printf.o
 .text.PrintChar
                0x00000000       0x14 ..\obj\printf.o
 .text.PutChar  0x00000000       0x20 ..\obj\printf.o
 .text.PutString
                0x00000000       0x3c ..\obj\printf.o
 .text.PutUnsignedInt
                0x00000000       0xa0 ..\obj\printf.o
 .text.PutSignedInt
                0x00000000       0xfc ..\obj\printf.o
 .text.PutHexa  0x00000000       0xd4 ..\obj\printf.o
 .text.vsnprintf
                0x00000000      0x254 ..\obj\printf.o
 .text.snprintf
                0x00000000       0x30 ..\obj\printf.o
 .text.vsprintf
                0x00000000       0x24 ..\obj\printf.o
 .rodata        0x00000000       0x24 ..\obj\printf.o
 .text.vfprintf
                0x00000000       0x68 ..\obj\printf.o
 .text.vprintf  0x00000000       0x28 ..\obj\printf.o
 .text.fprintf  0x00000000       0x2c ..\obj\printf.o
 .text.printf   0x00000000       0x28 ..\obj\printf.o
 .text.sprintf  0x00000000       0x2c ..\obj\printf.o
 .text.puts     0x00000000       0x24 ..\obj\printf.o
 .text.fputc    0x00000000       0x40 ..\obj\printf.o
 .text.fputs    0x00000000       0x48 ..\obj\printf.o
 .debug_info    0x00000000      0xe38 ..\obj\printf.o
 .debug_abbrev  0x00000000      0x27e ..\obj\printf.o
 .debug_aranges
                0x00000000       0xa0 ..\obj\printf.o
 .debug_ranges  0x00000000       0x90 ..\obj\printf.o
 .debug_line    0x00000000      0x395 ..\obj\printf.o
 .debug_str     0x00000000      0x65e ..\obj\printf.o
 .comment       0x00000000       0x71 ..\obj\printf.o
 .ARM.attributes
                0x00000000       0x33 ..\obj\printf.o
 .debug_frame   0x00000000      0x244 ..\obj\printf.o
 .text          0x00000000        0x0 ..\obj\stm32f10x_rcc.o
 .data          0x00000000       0x14 ..\obj\stm32f10x_rcc.o
 .bss           0x00000000        0x0 ..\obj\stm32f10x_rcc.o
 .text.RCC_DeInit
                0x00000000       0x5c ..\obj\stm32f10x_rcc.o
 .text.RCC_HSEConfig
                0x00000000       0x5c ..\obj\stm32f10x_rcc.o
 .text.RCC_WaitForHSEStartUp
                0x00000000       0x50 ..\obj\stm32f10x_rcc.o
 .text.RCC_AdjustHSICalibrationValue
                0x00000000       0x3c ..\obj\stm32f10x_rcc.o
 .text.RCC_HSICmd
                0x00000000       0x20 ..\obj\stm32f10x_rcc.o
 .text.RCC_PLLConfig
                0x00000000       0x3c ..\obj\stm32f10x_rcc.o
 .text.RCC_PLLCmd
                0x00000000       0x20 ..\obj\stm32f10x_rcc.o
 .text.RCC_SYSCLKConfig
                0x00000000       0x38 ..\obj\stm32f10x_rcc.o
 .text.RCC_GetSYSCLKSource
                0x00000000       0x20 ..\obj\stm32f10x_rcc.o
 .text.RCC_HCLKConfig
                0x00000000       0x38 ..\obj\stm32f10x_rcc.o
 .text.RCC_PCLK1Config
                0x00000000       0x38 ..\obj\stm32f10x_rcc.o
 .text.RCC_PCLK2Config
                0x00000000       0x38 ..\obj\stm32f10x_rcc.o
 .text.RCC_ITConfig
                0x00000000       0x48 ..\obj\stm32f10x_rcc.o
 .text.RCC_USBCLKConfig
                0x00000000       0x1c ..\obj\stm32f10x_rcc.o
 .text.RCC_ADCCLKConfig
                0x00000000       0x38 ..\obj\stm32f10x_rcc.o
 .text.RCC_LSICmd
                0x00000000       0x20 ..\obj\stm32f10x_rcc.o
 .text.RCC_GetClocksFreq
                0x00000000      0x164 ..\obj\stm32f10x_rcc.o
 .text.RCC_AHBPeriphClockCmd
                0x00000000       0x3c ..\obj\stm32f10x_rcc.o
 .text.RCC_ClockSecuritySystemCmd
                0x00000000       0x20 ..\obj\stm32f10x_rcc.o
 .text.RCC_MCOConfig
                0x00000000       0x20 ..\obj\stm32f10x_rcc.o
 .text.RCC_GetITStatus
                0x00000000       0x38 ..\obj\stm32f10x_rcc.o
 .text.RCC_ClearITPendingBit
                0x00000000       0x20 ..\obj\stm32f10x_rcc.o
 .text          0x00000000        0x0 ..\obj\stm32f10x_exti.o
 .data          0x00000000        0x0 ..\obj\stm32f10x_exti.o
 .bss           0x00000000        0x0 ..\obj\stm32f10x_exti.o
 .text.EXTI_DeInit
                0x00000000       0x34 ..\obj\stm32f10x_exti.o
 .text.EXTI_StructInit
                0x00000000       0x2c ..\obj\stm32f10x_exti.o
 .text.EXTI_GenerateSWInterrupt
                0x00000000       0x24 ..\obj\stm32f10x_exti.o
 .text.EXTI_GetFlagStatus
                0x00000000       0x34 ..\obj\stm32f10x_exti.o
 .text.EXTI_ClearFlag
                0x00000000       0x1c ..\obj\stm32f10x_exti.o
 .text          0x00000000        0x0 ..\obj\Biblioteka_Kalendarz.o
 .data          0x00000000        0x0 ..\obj\Biblioteka_Kalendarz.o
 .bss           0x00000000        0x0 ..\obj\Biblioteka_Kalendarz.o
 .text.Przelicz_date_na_sekundy
                0x00000000      0x150 ..\obj\Biblioteka_Kalendarz.o
 .text.WeekDay  0x00000000       0xb8 ..\obj\Biblioteka_Kalendarz.o
 .text          0x00000000        0x0 ..\obj\stm32f10x_adc.o
 .data          0x00000000        0x0 ..\obj\stm32f10x_adc.o
 .bss           0x00000000        0x0 ..\obj\stm32f10x_adc.o
 .text.ADC_DeInit
                0x00000000       0x74 ..\obj\stm32f10x_adc.o
 .text.ADC_Init
                0x00000000       0xa4 ..\obj\stm32f10x_adc.o
 .text.ADC_StructInit
                0x00000000       0x38 ..\obj\stm32f10x_adc.o
 .text.ADC_Cmd  0x00000000       0x38 ..\obj\stm32f10x_adc.o
 .text.ADC_DMACmd
                0x00000000       0x38 ..\obj\stm32f10x_adc.o
 .text.ADC_ITConfig
                0x00000000       0x44 ..\obj\stm32f10x_adc.o
 .text.ADC_ResetCalibration
                0x00000000       0x20 ..\obj\stm32f10x_adc.o
 .text.ADC_GetResetCalibrationStatus
                0x00000000       0x30 ..\obj\stm32f10x_adc.o
 .text.ADC_StartCalibration
                0x00000000       0x20 ..\obj\stm32f10x_adc.o
 .text.ADC_GetCalibrationStatus
                0x00000000       0x30 ..\obj\stm32f10x_adc.o
 .text.ADC_SoftwareStartConvCmd
                0x00000000       0x38 ..\obj\stm32f10x_adc.o
 .text.ADC_GetSoftwareStartConvStatus
                0x00000000       0x30 ..\obj\stm32f10x_adc.o
 .text.ADC_DiscModeChannelCountConfig
                0x00000000       0x44 ..\obj\stm32f10x_adc.o
 .text.ADC_DiscModeCmd
                0x00000000       0x38 ..\obj\stm32f10x_adc.o
 .text.ADC_RegularChannelConfig
                0x00000000      0x188 ..\obj\stm32f10x_adc.o
 .text.ADC_ExternalTrigConvCmd
                0x00000000       0x38 ..\obj\stm32f10x_adc.o
 .text.ADC_GetConversionValue
                0x00000000       0x1c ..\obj\stm32f10x_adc.o
 .text.ADC_GetDualModeConversionValue
                0x00000000       0x18 ..\obj\stm32f10x_adc.o
 .text.ADC_AutoInjectedConvCmd
                0x00000000       0x38 ..\obj\stm32f10x_adc.o
 .text.ADC_InjectedDiscModeCmd
                0x00000000       0x38 ..\obj\stm32f10x_adc.o
 .text.ADC_ExternalTrigInjectedConvConfig
                0x00000000       0x34 ..\obj\stm32f10x_adc.o
 .text.ADC_ExternalTrigInjectedConvCmd
                0x00000000       0x38 ..\obj\stm32f10x_adc.o
 .text.ADC_SoftwareStartInjectedConvCmd
                0x00000000       0x38 ..\obj\stm32f10x_adc.o
 .text.ADC_GetSoftwareStartInjectedConvCmdStatus
                0x00000000       0x30 ..\obj\stm32f10x_adc.o
 .text.ADC_InjectedChannelConfig
                0x00000000      0x114 ..\obj\stm32f10x_adc.o
 .text.ADC_InjectedSequencerLengthConfig
                0x00000000       0x44 ..\obj\stm32f10x_adc.o
 .text.ADC_SetInjectedOffset
                0x00000000       0x30 ..\obj\stm32f10x_adc.o
 .text.ADC_GetInjectedConversionValue
                0x00000000       0x30 ..\obj\stm32f10x_adc.o
 .text.ADC_AnalogWatchdogCmd
                0x00000000       0x38 ..\obj\stm32f10x_adc.o
 .text.ADC_AnalogWatchdogThresholdsConfig
                0x00000000       0x28 ..\obj\stm32f10x_adc.o
 .text.ADC_AnalogWatchdogSingleChannelConfig
                0x00000000       0x38 ..\obj\stm32f10x_adc.o
 .text.ADC_TempSensorVrefintCmd
                0x00000000       0x38 ..\obj\stm32f10x_adc.o
 .text.ADC_GetFlagStatus
                0x00000000       0x34 ..\obj\stm32f10x_adc.o
 .text.ADC_ClearFlag
                0x00000000       0x20 ..\obj\stm32f10x_adc.o
 .text.ADC_GetITStatus
                0x00000000       0x58 ..\obj\stm32f10x_adc.o
 .text.ADC_ClearITPendingBit
                0x00000000       0x2c ..\obj\stm32f10x_adc.o
 .debug_info    0x00000000      0xb74 ..\obj\stm32f10x_adc.o
 .debug_abbrev  0x00000000      0x198 ..\obj\stm32f10x_adc.o
 .debug_aranges
                0x00000000      0x138 ..\obj\stm32f10x_adc.o
 .debug_ranges  0x00000000      0x128 ..\obj\stm32f10x_adc.o
 .debug_line    0x00000000      0x51a ..\obj\stm32f10x_adc.o
 .debug_str     0x00000000      0x703 ..\obj\stm32f10x_adc.o
 .comment       0x00000000       0x71 ..\obj\stm32f10x_adc.o
 .ARM.attributes
                0x00000000       0x33 ..\obj\stm32f10x_adc.o
 .debug_frame   0x00000000      0x400 ..\obj\stm32f10x_adc.o
 .text          0x00000000        0x0 ..\obj\stm32f10x_it.o
 .text.NMIException
                0x00000000        0xc ..\obj\stm32f10x_it.o
 .text.HardFaultException
                0x00000000        0xc ..\obj\stm32f10x_it.o
 .text.MemManageException
                0x00000000        0xc ..\obj\stm32f10x_it.o
 .text.BusFaultException
                0x00000000        0xc ..\obj\stm32f10x_it.o
 .text.UsageFaultException
                0x00000000        0xc ..\obj\stm32f10x_it.o
 .text.DebugMonitor
                0x00000000        0xc ..\obj\stm32f10x_it.o
 .text.SVCHandler
                0x00000000        0xc ..\obj\stm32f10x_it.o
 .text.PendSVC  0x00000000        0xc ..\obj\stm32f10x_it.o
 .text.DMAChannel1_IRQHandler
                0x00000000        0xc ..\obj\stm32f10x_it.o
 .text.DMAChannel2_IRQHandler
                0x00000000        0xc ..\obj\stm32f10x_it.o
 .text.DMAChannel3_IRQHandler
                0x00000000        0xc ..\obj\stm32f10x_it.o
 .text.DMAChannel4_IRQHandler
                0x00000000        0xc ..\obj\stm32f10x_it.o
 .text.DMAChannel5_IRQHandler
                0x00000000        0xc ..\obj\stm32f10x_it.o
 .text.DMAChannel6_IRQHandler
                0x00000000        0xc ..\obj\stm32f10x_it.o
 .text.DMAChannel7_IRQHandler
                0x00000000        0xc ..\obj\stm32f10x_it.o
 .text.ADC_IRQHandler
                0x00000000        0xc ..\obj\stm32f10x_it.o
 .text.USB_HP_CAN_TX_IRQHandler
                0x00000000        0xc ..\obj\stm32f10x_it.o
 .text.USB_LP_CAN_RX0_IRQHandler
                0x00000000        0xc ..\obj\stm32f10x_it.o
 .text.CAN_RX1_IRQHandler
                0x00000000        0xc ..\obj\stm32f10x_it.o
 .text.CAN_SCE_IRQHandler
                0x00000000        0xc ..\obj\stm32f10x_it.o
 .text          0x00000000        0x0 ..\obj\stm32f10x_dma.o
 .data          0x00000000        0x0 ..\obj\stm32f10x_dma.o
 .bss           0x00000000        0x0 ..\obj\stm32f10x_dma.o
 .text.DMA_DeInit
                0x00000000      0x178 ..\obj\stm32f10x_dma.o
 .text.DMA_Init
                0x00000000       0x7c ..\obj\stm32f10x_dma.o
 .text.DMA_StructInit
                0x00000000       0x54 ..\obj\stm32f10x_dma.o
 .text.DMA_Cmd  0x00000000       0x38 ..\obj\stm32f10x_dma.o
 .text.DMA_ITConfig
                0x00000000       0x3c ..\obj\stm32f10x_dma.o
 .text.DMA_SetCurrDataCounter
                0x00000000       0x1c ..\obj\stm32f10x_dma.o
 .text.DMA_GetCurrDataCounter
                0x00000000       0x1c ..\obj\stm32f10x_dma.o
 .text.DMA_GetFlagStatus
                0x00000000       0x54 ..\obj\stm32f10x_dma.o
 .text.DMA_ClearFlag
                0x00000000       0x34 ..\obj\stm32f10x_dma.o
 .text.DMA_GetITStatus
                0x00000000       0x54 ..\obj\stm32f10x_dma.o
 .text.DMA_ClearITPendingBit
                0x00000000       0x34 ..\obj\stm32f10x_dma.o
 .debug_info    0x00000000      0x473 ..\obj\stm32f10x_dma.o
 .debug_abbrev  0x00000000      0x155 ..\obj\stm32f10x_dma.o
 .debug_aranges
                0x00000000       0x70 ..\obj\stm32f10x_dma.o
 .debug_ranges  0x00000000       0x60 ..\obj\stm32f10x_dma.o
 .debug_line    0x00000000      0x2fc ..\obj\stm32f10x_dma.o
 .debug_str     0x00000000      0x3bf ..\obj\stm32f10x_dma.o
 .comment       0x00000000       0x71 ..\obj\stm32f10x_dma.o
 .ARM.attributes
                0x00000000       0x33 ..\obj\stm32f10x_dma.o
 .debug_frame   0x00000000      0x144 ..\obj\stm32f10x_dma.o
 .text          0x00000000        0x0 ..\obj\misc.o
 .data          0x00000000        0x0 ..\obj\misc.o
 .bss           0x00000000        0x0 ..\obj\misc.o
 .text.NVIC_SystemLPConfig
                0x00000000       0x40 ..\obj\misc.o
 .text.SysTick_CLKSourceConfig
                0x00000000       0x38 ..\obj\misc.o
 .text          0x00000000        0x0 ..\obj\stm32f10x_bkp.o
 .data          0x00000000        0x0 ..\obj\stm32f10x_bkp.o
 .bss           0x00000000        0x0 ..\obj\stm32f10x_bkp.o
 .text.BKP_TamperPinLevelConfig
                0x00000000       0x20 ..\obj\stm32f10x_bkp.o
 .text.BKP_TamperPinCmd
                0x00000000       0x20 ..\obj\stm32f10x_bkp.o
 .text.BKP_ITConfig
                0x00000000       0x20 ..\obj\stm32f10x_bkp.o
 .text.BKP_RTCOutputConfig
                0x00000000       0x38 ..\obj\stm32f10x_bkp.o
 .text.BKP_SetRTCCalibrationValue
                0x00000000       0x3c ..\obj\stm32f10x_bkp.o
 .text.BKP_WriteBackupRegister
                0x00000000       0x34 ..\obj\stm32f10x_bkp.o
 .text.BKP_ReadBackupRegister
                0x00000000       0x30 ..\obj\stm32f10x_bkp.o
 .text.BKP_GetFlagStatus
                0x00000000       0x18 ..\obj\stm32f10x_bkp.o
 .text.BKP_ClearFlag
                0x00000000       0x20 ..\obj\stm32f10x_bkp.o
 .text.BKP_GetITStatus
                0x00000000       0x18 ..\obj\stm32f10x_bkp.o
 .text.BKP_ClearITPendingBit
                0x00000000       0x20 ..\obj\stm32f10x_bkp.o
 .text          0x00000000        0x0 ..\obj\stm32f10x_iwdg.o
 .data          0x00000000        0x0 ..\obj\stm32f10x_iwdg.o
 .bss           0x00000000        0x0 ..\obj\stm32f10x_iwdg.o
 .text.IWDG_WriteAccessCmd
                0x00000000       0x20 ..\obj\stm32f10x_iwdg.o
 .text.IWDG_SetPrescaler
                0x00000000       0x20 ..\obj\stm32f10x_iwdg.o
 .text.IWDG_SetReload
                0x00000000       0x20 ..\obj\stm32f10x_iwdg.o
 .text.IWDG_ReloadCounter
                0x00000000       0x18 ..\obj\stm32f10x_iwdg.o
 .text.IWDG_Enable
                0x00000000       0x18 ..\obj\stm32f10x_iwdg.o
 .text.IWDG_GetFlagStatus
                0x00000000       0x38 ..\obj\stm32f10x_iwdg.o
 .debug_info    0x00000000      0x20a ..\obj\stm32f10x_iwdg.o
 .debug_abbrev  0x00000000      0x101 ..\obj\stm32f10x_iwdg.o
 .debug_aranges
                0x00000000       0x48 ..\obj\stm32f10x_iwdg.o
 .debug_ranges  0x00000000       0x38 ..\obj\stm32f10x_iwdg.o
 .debug_line    0x00000000      0x210 ..\obj\stm32f10x_iwdg.o
 .debug_str     0x00000000      0x264 ..\obj\stm32f10x_iwdg.o
 .comment       0x00000000       0x71 ..\obj\stm32f10x_iwdg.o
 .ARM.attributes
                0x00000000       0x33 ..\obj\stm32f10x_iwdg.o
 .debug_frame   0x00000000       0xb0 ..\obj\stm32f10x_iwdg.o
 .text          0x00000000        0x0 ..\..\..\..\..\..\..\Program Files (x86)\GNU Tools ARM Embedded\4.8 2014q3\arm-none-eabi\lib\armv7e-m\softfp\libm.a(lib_a-s_sin.o)
 .data          0x00000000        0x0 ..\..\..\..\..\..\..\Program Files (x86)\GNU Tools ARM Embedded\4.8 2014q3\arm-none-eabi\lib\armv7e-m\softfp\libm.a(lib_a-s_sin.o)
 .bss           0x00000000        0x0 ..\..\..\..\..\..\..\Program Files (x86)\GNU Tools ARM Embedded\4.8 2014q3\arm-none-eabi\lib\armv7e-m\softfp\libm.a(lib_a-s_sin.o)
 .text          0x00000000        0x0 ..\..\..\..\..\..\..\Program Files (x86)\GNU Tools ARM Embedded\4.8 2014q3\arm-none-eabi\lib\armv7e-m\softfp\libm.a(lib_a-e_rem_pio2.o)
 .data          0x00000000        0x0 ..\..\..\..\..\..\..\Program Files (x86)\GNU Tools ARM Embedded\4.8 2014q3\arm-none-eabi\lib\armv7e-m\softfp\libm.a(lib_a-e_rem_pio2.o)
 .bss           0x00000000        0x0 ..\..\..\..\..\..\..\Program Files (x86)\GNU Tools ARM Embedded\4.8 2014q3\arm-none-eabi\lib\armv7e-m\softfp\libm.a(lib_a-e_rem_pio2.o)
 .text          0x00000000        0x0 ..\..\..\..\..\..\..\Program Files (x86)\GNU Tools ARM Embedded\4.8 2014q3\arm-none-eabi\lib\armv7e-m\softfp\libm.a(lib_a-k_cos.o)
 .data          0x00000000        0x0 ..\..\..\..\..\..\..\Program Files (x86)\GNU Tools ARM Embedded\4.8 2014q3\arm-none-eabi\lib\armv7e-m\softfp\libm.a(lib_a-k_cos.o)
 .bss           0x00000000        0x0 ..\..\..\..\..\..\..\Program Files (x86)\GNU Tools ARM Embedded\4.8 2014q3\arm-none-eabi\lib\armv7e-m\softfp\libm.a(lib_a-k_cos.o)
 .text          0x00000000        0x0 ..\..\..\..\..\..\..\Program Files (x86)\GNU Tools ARM Embedded\4.8 2014q3\arm-none-eabi\lib\armv7e-m\softfp\libm.a(lib_a-k_rem_pio2.o)
 .data          0x00000000        0x0 ..\..\..\..\..\..\..\Program Files (x86)\GNU Tools ARM Embedded\4.8 2014q3\arm-none-eabi\lib\armv7e-m\softfp\libm.a(lib_a-k_rem_pio2.o)
 .bss           0x00000000        0x0 ..\..\..\..\..\..\..\Program Files (x86)\GNU Tools ARM Embedded\4.8 2014q3\arm-none-eabi\lib\armv7e-m\softfp\libm.a(lib_a-k_rem_pio2.o)
 .text          0x00000000        0x0 ..\..\..\..\..\..\..\Program Files (x86)\GNU Tools ARM Embedded\4.8 2014q3\arm-none-eabi\lib\armv7e-m\softfp\libm.a(lib_a-k_sin.o)
 .data          0x00000000        0x0 ..\..\..\..\..\..\..\Program Files (x86)\GNU Tools ARM Embedded\4.8 2014q3\arm-none-eabi\lib\armv7e-m\softfp\libm.a(lib_a-k_sin.o)
 .bss           0x00000000        0x0 ..\..\..\..\..\..\..\Program Files (x86)\GNU Tools ARM Embedded\4.8 2014q3\arm-none-eabi\lib\armv7e-m\softfp\libm.a(lib_a-k_sin.o)
 .text          0x00000000        0x0 ..\..\..\..\..\..\..\Program Files (x86)\GNU Tools ARM Embedded\4.8 2014q3\arm-none-eabi\lib\armv7e-m\softfp\libm.a(lib_a-s_fabs.o)
 .data          0x00000000        0x0 ..\..\..\..\..\..\..\Program Files (x86)\GNU Tools ARM Embedded\4.8 2014q3\arm-none-eabi\lib\armv7e-m\softfp\libm.a(lib_a-s_fabs.o)
 .bss           0x00000000        0x0 ..\..\..\..\..\..\..\Program Files (x86)\GNU Tools ARM Embedded\4.8 2014q3\arm-none-eabi\lib\armv7e-m\softfp\libm.a(lib_a-s_fabs.o)
 .text          0x00000000        0x0 ..\..\..\..\..\..\..\Program Files (x86)\GNU Tools ARM Embedded\4.8 2014q3\arm-none-eabi\lib\armv7e-m\softfp\libm.a(lib_a-s_floor.o)
 .data          0x00000000        0x0 ..\..\..\..\..\..\..\Program Files (x86)\GNU Tools ARM Embedded\4.8 2014q3\arm-none-eabi\lib\armv7e-m\softfp\libm.a(lib_a-s_floor.o)
 .bss           0x00000000        0x0 ..\..\..\..\..\..\..\Program Files (x86)\GNU Tools ARM Embedded\4.8 2014q3\arm-none-eabi\lib\armv7e-m\softfp\libm.a(lib_a-s_floor.o)
 .text          0x00000000        0x0 ..\..\..\..\..\..\..\Program Files (x86)\GNU Tools ARM Embedded\4.8 2014q3\arm-none-eabi\lib\armv7e-m\softfp\libm.a(lib_a-s_scalbn.o)
 .data          0x00000000        0x0 ..\..\..\..\..\..\..\Program Files (x86)\GNU Tools ARM Embedded\4.8 2014q3\arm-none-eabi\lib\armv7e-m\softfp\libm.a(lib_a-s_scalbn.o)
 .bss           0x00000000        0x0 ..\..\..\..\..\..\..\Program Files (x86)\GNU Tools ARM Embedded\4.8 2014q3\arm-none-eabi\lib\armv7e-m\softfp\libm.a(lib_a-s_scalbn.o)
 .text          0x00000000        0x0 ..\..\..\..\..\..\..\Program Files (x86)\GNU Tools ARM Embedded\4.8 2014q3\arm-none-eabi\lib\armv7e-m\softfp\libm.a(lib_a-s_copysign.o)
 .data          0x00000000        0x0 ..\..\..\..\..\..\..\Program Files (x86)\GNU Tools ARM Embedded\4.8 2014q3\arm-none-eabi\lib\armv7e-m\softfp\libm.a(lib_a-s_copysign.o)
 .bss           0x00000000        0x0 ..\..\..\..\..\..\..\Program Files (x86)\GNU Tools ARM Embedded\4.8 2014q3\arm-none-eabi\lib\armv7e-m\softfp\libm.a(lib_a-s_copysign.o)
 .data          0x00000000        0x0 c:/program files (x86)/gnu tools arm embedded/4.8 2014q3/bin/../lib/gcc/arm-none-eabi/4.8.4/armv7-m\libgcc.a(_arm_addsubdf3.o)
 .bss           0x00000000        0x0 c:/program files (x86)/gnu tools arm embedded/4.8 2014q3/bin/../lib/gcc/arm-none-eabi/4.8.4/armv7-m\libgcc.a(_arm_addsubdf3.o)
 .data          0x00000000        0x0 c:/program files (x86)/gnu tools arm embedded/4.8 2014q3/bin/../lib/gcc/arm-none-eabi/4.8.4/armv7-m\libgcc.a(_arm_muldivdf3.o)
 .bss           0x00000000        0x0 c:/program files (x86)/gnu tools arm embedded/4.8 2014q3/bin/../lib/gcc/arm-none-eabi/4.8.4/armv7-m\libgcc.a(_arm_muldivdf3.o)
 .data          0x00000000        0x0 c:/program files (x86)/gnu tools arm embedded/4.8 2014q3/bin/../lib/gcc/arm-none-eabi/4.8.4/armv7-m\libgcc.a(_arm_cmpdf2.o)
 .bss           0x00000000        0x0 c:/program files (x86)/gnu tools arm embedded/4.8 2014q3/bin/../lib/gcc/arm-none-eabi/4.8.4/armv7-m\libgcc.a(_arm_cmpdf2.o)
 .data          0x00000000        0x0 c:/program files (x86)/gnu tools arm embedded/4.8 2014q3/bin/../lib/gcc/arm-none-eabi/4.8.4/armv7-m\libgcc.a(_arm_fixdfsi.o)
 .bss           0x00000000        0x0 c:/program files (x86)/gnu tools arm embedded/4.8 2014q3/bin/../lib/gcc/arm-none-eabi/4.8.4/armv7-m\libgcc.a(_arm_fixdfsi.o)
 .data          0x00000000        0x0 c:/program files (x86)/gnu tools arm embedded/4.8 2014q3/bin/../lib/gcc/arm-none-eabi/4.8.4/armv7-m\libgcc.a(_arm_truncdfsf2.o)
 .bss           0x00000000        0x0 c:/program files (x86)/gnu tools arm embedded/4.8 2014q3/bin/../lib/gcc/arm-none-eabi/4.8.4/armv7-m\libgcc.a(_arm_truncdfsf2.o)
 .data          0x00000000        0x0 c:/program files (x86)/gnu tools arm embedded/4.8 2014q3/bin/../lib/gcc/arm-none-eabi/4.8.4/armv7-m\libgcc.a(_arm_fixsfsi.o)
 .bss           0x00000000        0x0 c:/program files (x86)/gnu tools arm embedded/4.8 2014q3/bin/../lib/gcc/arm-none-eabi/4.8.4/armv7-m\libgcc.a(_arm_fixsfsi.o)
 .text          0x00000000        0x0 ..\..\..\..\..\..\..\Program Files (x86)\GNU Tools ARM Embedded\4.8 2014q3\arm-none-eabi\lib\armv7e-m\softfp\libg.a(lib_a-atoi.o)
 .data          0x00000000        0x0 ..\..\..\..\..\..\..\Program Files (x86)\GNU Tools ARM Embedded\4.8 2014q3\arm-none-eabi\lib\armv7e-m\softfp\libg.a(lib_a-atoi.o)
 .bss           0x00000000        0x0 ..\..\..\..\..\..\..\Program Files (x86)\GNU Tools ARM Embedded\4.8 2014q3\arm-none-eabi\lib\armv7e-m\softfp\libg.a(lib_a-atoi.o)
 .text.atoi     0x00000000        0x8 ..\..\..\..\..\..\..\Program Files (x86)\GNU Tools ARM Embedded\4.8 2014q3\arm-none-eabi\lib\armv7e-m\softfp\libg.a(lib_a-atoi.o)
 .text._atoi_r  0x00000000        0x8 ..\..\..\..\..\..\..\Program Files (x86)\GNU Tools ARM Embedded\4.8 2014q3\arm-none-eabi\lib\armv7e-m\softfp\libg.a(lib_a-atoi.o)
 .ARM.attributes
                0x00000000       0x32 ..\..\..\..\..\..\..\Program Files (x86)\GNU Tools ARM Embedded\4.8 2014q3\arm-none-eabi\lib\armv7e-m\softfp\libg.a(lib_a-atoi.o)
 .debug_frame   0x00000000       0x30 ..\..\..\..\..\..\..\Program Files (x86)\GNU Tools ARM Embedded\4.8 2014q3\arm-none-eabi\lib\armv7e-m\softfp\libg.a(lib_a-atoi.o)
 .text          0x00000000        0x0 ..\..\..\..\..\..\..\Program Files (x86)\GNU Tools ARM Embedded\4.8 2014q3\arm-none-eabi\lib\armv7e-m\softfp\libg.a(lib_a-strtol.o)
 .data          0x00000000        0x0 ..\..\..\..\..\..\..\Program Files (x86)\GNU Tools ARM Embedded\4.8 2014q3\arm-none-eabi\lib\armv7e-m\softfp\libg.a(lib_a-strtol.o)
 .bss           0x00000000        0x0 ..\..\..\..\..\..\..\Program Files (x86)\GNU Tools ARM Embedded\4.8 2014q3\arm-none-eabi\lib\armv7e-m\softfp\libg.a(lib_a-strtol.o)
 .text._strtol_r
                0x00000000      0x114 ..\..\..\..\..\..\..\Program Files (x86)\GNU Tools ARM Embedded\4.8 2014q3\arm-none-eabi\lib\armv7e-m\softfp\libg.a(lib_a-strtol.o)
 .text.strtol   0x00000000       0x18 ..\..\..\..\..\..\..\Program Files (x86)\GNU Tools ARM Embedded\4.8 2014q3\arm-none-eabi\lib\armv7e-m\softfp\libg.a(lib_a-strtol.o)
 .ARM.attributes
                0x00000000       0x32 ..\..\..\..\..\..\..\Program Files (x86)\GNU Tools ARM Embedded\4.8 2014q3\arm-none-eabi\lib\armv7e-m\softfp\libg.a(lib_a-strtol.o)
 .debug_frame   0x00000000       0x50 ..\..\..\..\..\..\..\Program Files (x86)\GNU Tools ARM Embedded\4.8 2014q3\arm-none-eabi\lib\armv7e-m\softfp\libg.a(lib_a-strtol.o)
 .text          0x00000000        0x0 ..\..\..\..\..\..\..\Program Files (x86)\GNU Tools ARM Embedded\4.8 2014q3\arm-none-eabi\lib\armv7e-m\softfp\libg.a(lib_a-ctype_.o)
 .data          0x00000000        0x0 ..\..\..\..\..\..\..\Program Files (x86)\GNU Tools ARM Embedded\4.8 2014q3\arm-none-eabi\lib\armv7e-m\softfp\libg.a(lib_a-ctype_.o)
 .bss           0x00000000        0x0 ..\..\..\..\..\..\..\Program Files (x86)\GNU Tools ARM Embedded\4.8 2014q3\arm-none-eabi\lib\armv7e-m\softfp\libg.a(lib_a-ctype_.o)
 .data.__ctype_ptr__
                0x00000000        0x4 ..\..\..\..\..\..\..\Program Files (x86)\GNU Tools ARM Embedded\4.8 2014q3\arm-none-eabi\lib\armv7e-m\softfp\libg.a(lib_a-ctype_.o)
 .rodata._ctype_
                0x00000000      0x104 ..\..\..\..\..\..\..\Program Files (x86)\GNU Tools ARM Embedded\4.8 2014q3\arm-none-eabi\lib\armv7e-m\softfp\libg.a(lib_a-ctype_.o)
 .ARM.attributes
                0x00000000       0x32 ..\..\..\..\..\..\..\Program Files (x86)\GNU Tools ARM Embedded\4.8 2014q3\arm-none-eabi\lib\armv7e-m\softfp\libg.a(lib_a-ctype_.o)

Memory Configuration

Name             Origin             Length             Attributes
rom              0x08000000         0x00010000         xr
ram              0x20000000         0x00005000         xrw
*default*        0x00000000         0xffffffff

Linker script and memory map

                0x20005000                _eram = 0x20005000

.text           0x08000000     0x4340
 *(.isr_vector)
 .isr_vector    0x08000000      0x10c ..\obj\startup_stm32f10x_md.o
                0x08000000                g_pfnVectors
 *(.text*)
 .text.RTC_ITConfig
                0x0800010c       0x48 ..\obj\stm32f10x_rtc.o
                0x0800010c                RTC_ITConfig
 .text.RTC_EnterConfigMode
                0x08000154       0x20 ..\obj\stm32f10x_rtc.o
                0x08000154                RTC_EnterConfigMode
 .text.RTC_ExitConfigMode
                0x08000174       0x20 ..\obj\stm32f10x_rtc.o
                0x08000174                RTC_ExitConfigMode
 .text.RTC_GetCounter
                0x08000194       0x2c ..\obj\stm32f10x_rtc.o
                0x08000194                RTC_GetCounter
 .text.RTC_SetCounter
                0x080001c0       0x2c ..\obj\stm32f10x_rtc.o
                0x080001c0                RTC_SetCounter
 .text.RTC_SetPrescaler
                0x080001ec       0x30 ..\obj\stm32f10x_rtc.o
                0x080001ec                RTC_SetPrescaler
 .text.RTC_WaitForLastTask
                0x0800021c       0x20 ..\obj\stm32f10x_rtc.o
                0x0800021c                RTC_WaitForLastTask
 .text.RTC_WaitForSynchro
                0x0800023c       0x30 ..\obj\stm32f10x_rtc.o
                0x0800023c                RTC_WaitForSynchro
 .text.RTC_GetITStatus
                0x0800026c       0x50 ..\obj\stm32f10x_rtc.o
                0x0800026c                RTC_GetITStatus
 .text.RTC_ClearITPendingBit
                0x080002bc       0x2c ..\obj\stm32f10x_rtc.o
                0x080002bc                RTC_ClearITPendingBit
 .text.TIM_DeInit
                0x080002e8      0x22c ..\obj\stm32f10x_tim.o
                0x080002e8                TIM_DeInit
 .text.TIM_TimeBaseInit
                0x08000514       0xf8 ..\obj\stm32f10x_tim.o
                0x08000514                TIM_TimeBaseInit
 .text.TIM_Cmd  0x0800060c       0x40 ..\obj\stm32f10x_tim.o
                0x0800060c                TIM_Cmd
 .text.TIM_ITConfig
                0x0800064c       0x48 ..\obj\stm32f10x_tim.o
                0x0800064c                TIM_ITConfig
 .text.TIM_GetITStatus
                0x08000694       0x54 ..\obj\stm32f10x_tim.o
                0x08000694                TIM_GetITStatus
 .text.TIM_ClearITPendingBit
                0x080006e8       0x20 ..\obj\stm32f10x_tim.o
                0x080006e8                TIM_ClearITPendingBit
 .text.RTC_SetTime
                0x08000708       0x4c ..\obj\RTC_TimeAndCallendar.o
                0x08000708                RTC_SetTime
 .text.RTC_SetCalendar
                0x08000754       0x64 ..\obj\RTC_TimeAndCallendar.o
                0x08000754                RTC_SetCalendar
 .text.RTC_GetSeconds
                0x080007b8       0x14 ..\obj\RTC_TimeAndCallendar.o
                0x080007b8                RTC_GetSeconds
 .text.RTC_GetCalendar
                0x080007cc       0x30 ..\obj\RTC_TimeAndCallendar.o
                0x080007cc                RTC_GetCalendar
 .text.RTC_GetTime
                0x080007fc       0x20 ..\obj\RTC_TimeAndCallendar.o
                0x080007fc                RTC_GetTime
 .text.SystemInit
                0x0800081c       0x68 ..\obj\system_stm32f10x.o
                0x0800081c                SystemInit
 .text.SetSysClock
                0x08000884        0xc ..\obj\system_stm32f10x.o
 .text.SetSysClockToHSE
                0x08000890       0xc4 ..\obj\system_stm32f10x.o
 .text.PWR_BackupAccessCmd
                0x08000954       0x20 ..\obj\stm32f10x_pwr.o
                0x08000954                PWR_BackupAccessCmd
 .text.Default_Reset_Handler
                0x08000974       0x60 ..\obj\startup_stm32f10x_md.o
                0x08000974                Default_Reset_Handler
                0x08000974                Reset_Handler
 .text.Default_Handler
                0x080009d4        0x8 ..\obj\startup_stm32f10x_md.o
                0x080009d4                DebugMon_Handler
                0x080009d4                HardFault_Handler
                0x080009d4                PendSV_Handler
                0x080009d4                NMI_Handler
                0x080009d4                UsageFault_Handler
                0x080009d4                ADC1_2_IRQHandler
                0x080009d4                DMA1_Channel4_IRQHandler
                0x080009d4                DMA1_Channel7_IRQHandler
                0x080009d4                CAN1_RX1_IRQHandler
                0x080009d4                DMA1_Channel6_IRQHandler
                0x080009d4                DMA1_Channel1_IRQHandler
                0x080009d4                MemManage_Handler
                0x080009d4                SVC_Handler
                0x080009d4                DMA1_Channel5_IRQHandler
                0x080009d4                USB_LP_CAN1_RX0_IRQHandler
                0x080009d4                USB_HP_CAN1_TX_IRQHandler
                0x080009d4                DMA1_Channel3_IRQHandler
                0x080009d4                DMA1_Channel2_IRQHandler
                0x080009d4                CAN1_SCE_IRQHandler
                0x080009d4                BusFault_Handler
 .text.GPIO_Init
                0x080009dc      0x178 ..\obj\stm32f10x_gpio.o
                0x080009dc                GPIO_Init
 .text.GPIO_ReadInputDataBit
                0x08000b54       0x34 ..\obj\stm32f10x_gpio.o
                0x08000b54                GPIO_ReadInputDataBit
 .text.GPIO_ReadOutputDataBit
                0x08000b88       0x34 ..\obj\stm32f10x_gpio.o
                0x08000b88                GPIO_ReadOutputDataBit
 .text.GPIO_WriteBit
                0x08000bbc       0x30 ..\obj\stm32f10x_gpio.o
                0x08000bbc                GPIO_WriteBit
 .text.GPIO_PinRemapConfig
                0x08000bec       0xe0 ..\obj\stm32f10x_gpio.o
                0x08000bec                GPIO_PinRemapConfig
 .text.GPIO_EXTILineConfig
                0x08000ccc       0x7c ..\obj\stm32f10x_gpio.o
                0x08000ccc                GPIO_EXTILineConfig
 .text.Buttons_Configuration
                0x08000d48       0x78 ..\obj\system_init.o
                0x08000d48                Buttons_Configuration
 .text.Nixie_GPIOConfiguration
                0x08000dc0       0x84 ..\obj\system_init.o
                0x08000dc0                Nixie_GPIOConfiguration
 .text.TIM_Configuration
                0x08000e44       0x4c ..\obj\system_init.o
                0x08000e44                TIM_Configuration
 .text.RTC_Initialization
                0x08000e90       0x70 ..\obj\system_init.o
                0x08000e90                RTC_Initialization
 .text.NVIC_Initialization
                0x08000f00       0x68 ..\obj\system_init.o
                0x08000f00                NVIC_Initialization
 .text.Delay_L  0x08000f68       0x24 ..\obj\Delays.o
                0x08000f68                Delay_L
 .text.main     0x08000f8c       0x58 ..\obj\main.o
                0x08000f8c                main
 .text.Wyswietl_program
                0x08000fe4       0x40 ..\obj\main.o
                0x08000fe4                Wyswietl_program
 .text.Wyswietl_czas
                0x08001024      0x134 ..\obj\main.o
                0x08001024                Wyswietl_czas
 .text.Wyswietl_ustaw_zegar_godzina
                0x08001158       0x68 ..\obj\main.o
                0x08001158                Wyswietl_ustaw_zegar_godzina
 .text.Wyswietl_ustaw_zegar_minuta
                0x080011c0       0x68 ..\obj\main.o
                0x080011c0                Wyswietl_ustaw_zegar_minuta
 .text.Wyswietl_ustaw_zegar_dzien
                0x08001228       0x44 ..\obj\main.o
                0x08001228                Wyswietl_ustaw_zegar_dzien
 .text.Wyswietl_ustaw_alarm_godzina
                0x0800126c       0x40 ..\obj\main.o
                0x0800126c                Wyswietl_ustaw_alarm_godzina
 .text.Wyswietl_ustaw_alarm_minuta
                0x080012ac       0x40 ..\obj\main.o
                0x080012ac                Wyswietl_ustaw_alarm_minuta
 .text.Wyswietl_ustaw_kalibracja
                0x080012ec       0x38 ..\obj\main.o
                0x080012ec                Wyswietl_ustaw_kalibracja
 .text.Display_digit
                0x08001324      0x358 ..\obj\main.o
                0x08001324                Display_digit
 .text.RCC_LSEConfig
                0x0800167c       0x40 ..\obj\stm32f10x_rcc.o
                0x0800167c                RCC_LSEConfig
 .text.RCC_RTCCLKConfig
                0x080016bc       0x24 ..\obj\stm32f10x_rcc.o
                0x080016bc                RCC_RTCCLKConfig
 .text.RCC_RTCCLKCmd
                0x080016e0       0x20 ..\obj\stm32f10x_rcc.o
                0x080016e0                RCC_RTCCLKCmd
 .text.RCC_APB2PeriphClockCmd
                0x08001700       0x3c ..\obj\stm32f10x_rcc.o
                0x08001700                RCC_APB2PeriphClockCmd
 .text.RCC_APB1PeriphClockCmd
                0x0800173c       0x3c ..\obj\stm32f10x_rcc.o
                0x0800173c                RCC_APB1PeriphClockCmd
 .text.RCC_APB2PeriphResetCmd
                0x08001778       0x3c ..\obj\stm32f10x_rcc.o
                0x08001778                RCC_APB2PeriphResetCmd
 .text.RCC_APB1PeriphResetCmd
                0x080017b4       0x3c ..\obj\stm32f10x_rcc.o
                0x080017b4                RCC_APB1PeriphResetCmd
 .text.RCC_BackupResetCmd
                0x080017f0       0x20 ..\obj\stm32f10x_rcc.o
                0x080017f0                RCC_BackupResetCmd
 .text.RCC_GetFlagStatus
                0x08001810       0x74 ..\obj\stm32f10x_rcc.o
                0x08001810                RCC_GetFlagStatus
 .text.RCC_ClearFlag
                0x08001884       0x1c ..\obj\stm32f10x_rcc.o
                0x08001884                RCC_ClearFlag
 .text.EXTI_Init
                0x080018a0       0xdc ..\obj\stm32f10x_exti.o
                0x080018a0                EXTI_Init
 .text.EXTI_GetITStatus
                0x0800197c       0x48 ..\obj\stm32f10x_exti.o
                0x0800197c                EXTI_GetITStatus
 .text.EXTI_ClearITPendingBit
                0x080019c4       0x1c ..\obj\stm32f10x_exti.o
                0x080019c4                EXTI_ClearITPendingBit
 .text.CheckLeap
                0x080019e0       0x60 ..\obj\Biblioteka_Kalendarz.o
                0x080019e0                CheckLeap
 .text.ConvertCalendarToSeconds
                0x08001a40       0xf0 ..\obj\Biblioteka_Kalendarz.o
                0x08001a40                ConvertCalendarToSeconds
 .text.ConvertTimeToSeconds
                0x08001b30       0x3c ..\obj\Biblioteka_Kalendarz.o
                0x08001b30                ConvertTimeToSeconds
 *fill*         0x08001b6c        0x4 
 .text.ConvertSecondsToCalendar
                0x08001b70      0x320 ..\obj\Biblioteka_Kalendarz.o
                0x08001b70                ConvertSecondsToCalendar
 .text.ConvertSecondsToTime
                0x08001e90       0x80 ..\obj\Biblioteka_Kalendarz.o
                0x08001e90                ConvertSecondsToTime
 .text.SysTick_Handler
                0x08001f10        0xc ..\obj\stm32f10x_it.o
                0x08001f10                SysTick_Handler
 .text.WWDG_IRQHandler
                0x08001f1c        0xc ..\obj\stm32f10x_it.o
                0x08001f1c                WWDG_IRQHandler
 .text.PVD_IRQHandler
                0x08001f28        0xc ..\obj\stm32f10x_it.o
                0x08001f28                PVD_IRQHandler
 .text.TAMPER_IRQHandler
                0x08001f34        0xc ..\obj\stm32f10x_it.o
                0x08001f34                TAMPER_IRQHandler
 .text.RTC_IRQHandler
                0x08001f40       0x64 ..\obj\stm32f10x_it.o
                0x08001f40                RTC_IRQHandler
 .text.FLASH_IRQHandler
                0x08001fa4        0xc ..\obj\stm32f10x_it.o
                0x08001fa4                FLASH_IRQHandler
 .text.RCC_IRQHandler
                0x08001fb0        0xc ..\obj\stm32f10x_it.o
                0x08001fb0                RCC_IRQHandler
 .text.EXTI0_IRQHandler
                0x08001fbc        0xc ..\obj\stm32f10x_it.o
                0x08001fbc                EXTI0_IRQHandler
 .text.EXTI1_IRQHandler
                0x08001fc8        0xc ..\obj\stm32f10x_it.o
                0x08001fc8                EXTI1_IRQHandler
 .text.EXTI2_IRQHandler
                0x08001fd4        0xc ..\obj\stm32f10x_it.o
                0x08001fd4                EXTI2_IRQHandler
 .text.EXTI3_IRQHandler
                0x08001fe0        0xc ..\obj\stm32f10x_it.o
                0x08001fe0                EXTI3_IRQHandler
 .text.EXTI4_IRQHandler
                0x08001fec        0xc ..\obj\stm32f10x_it.o
                0x08001fec                EXTI4_IRQHandler
 .text.EXTI9_5_IRQHandler
                0x08001ff8      0x1f4 ..\obj\stm32f10x_it.o
                0x08001ff8                EXTI9_5_IRQHandler
 .text.TIM1_BRK_IRQHandler
                0x080021ec        0xc ..\obj\stm32f10x_it.o
                0x080021ec                TIM1_BRK_IRQHandler
 .text.TIM1_UP_IRQHandler
                0x080021f8       0x20 ..\obj\stm32f10x_it.o
                0x080021f8                TIM1_UP_IRQHandler
 .text.TIM1_TRG_COM_IRQHandler
                0x08002218        0xc ..\obj\stm32f10x_it.o
                0x08002218                TIM1_TRG_COM_IRQHandler
 .text.TIM1_CC_IRQHandler
                0x08002224        0xc ..\obj\stm32f10x_it.o
                0x08002224                TIM1_CC_IRQHandler
 .text.TIM2_IRQHandler
                0x08002230        0xc ..\obj\stm32f10x_it.o
                0x08002230                TIM2_IRQHandler
 .text.TIM3_IRQHandler
                0x0800223c       0xc4 ..\obj\stm32f10x_it.o
                0x0800223c                TIM3_IRQHandler
 .text.TIM4_IRQHandler
                0x08002300        0xc ..\obj\stm32f10x_it.o
                0x08002300                TIM4_IRQHandler
 .text.I2C1_EV_IRQHandler
                0x0800230c        0xc ..\obj\stm32f10x_it.o
                0x0800230c                I2C1_EV_IRQHandler
 .text.I2C1_ER_IRQHandler
                0x08002318        0xc ..\obj\stm32f10x_it.o
                0x08002318                I2C1_ER_IRQHandler
 .text.I2C2_EV_IRQHandler
                0x08002324        0xc ..\obj\stm32f10x_it.o
                0x08002324                I2C2_EV_IRQHandler
 .text.I2C2_ER_IRQHandler
                0x08002330        0xc ..\obj\stm32f10x_it.o
                0x08002330                I2C2_ER_IRQHandler
 .text.SPI1_IRQHandler
                0x0800233c        0xc ..\obj\stm32f10x_it.o
                0x0800233c                SPI1_IRQHandler
 .text.SPI2_IRQHandler
                0x08002348        0xc ..\obj\stm32f10x_it.o
                0x08002348                SPI2_IRQHandler
 .text.USART1_IRQHandler
                0x08002354        0xc ..\obj\stm32f10x_it.o
                0x08002354                USART1_IRQHandler
 .text.USART2_IRQHandler
                0x08002360        0xc ..\obj\stm32f10x_it.o
                0x08002360                USART2_IRQHandler
 .text.USART3_IRQHandler
                0x0800236c        0xc ..\obj\stm32f10x_it.o
                0x0800236c                USART3_IRQHandler
 .text.EXTI15_10_IRQHandler
                0x08002378       0x48 ..\obj\stm32f10x_it.o
                0x08002378                EXTI15_10_IRQHandler
 .text.RTCAlarm_IRQHandler
                0x080023c0        0xc ..\obj\stm32f10x_it.o
                0x080023c0                RTCAlarm_IRQHandler
 .text.USBWakeUp_IRQHandler
                0x080023cc        0xc ..\obj\stm32f10x_it.o
                0x080023cc                USBWakeUp_IRQHandler
 .text.NVIC_PriorityGroupConfig
                0x080023d8       0x24 ..\obj\misc.o
                0x080023d8                NVIC_PriorityGroupConfig
 .text.NVIC_Init
                0x080023fc       0xc0 ..\obj\misc.o
                0x080023fc                NVIC_Init
 .text.NVIC_SetVectorTable
                0x080024bc       0x2c ..\obj\misc.o
                0x080024bc                NVIC_SetVectorTable
 .text.BKP_DeInit
                0x080024e8       0x14 ..\obj\stm32f10x_bkp.o
                0x080024e8                BKP_DeInit
 .text.sin      0x080024fc       0x94 ..\..\..\..\..\..\..\Program Files (x86)\GNU Tools ARM Embedded\4.8 2014q3\arm-none-eabi\lib\armv7e-m\softfp\libm.a(lib_a-s_sin.o)
                0x080024fc                sin
 .text.__ieee754_rem_pio2
                0x08002590      0x440 ..\..\..\..\..\..\..\Program Files (x86)\GNU Tools ARM Embedded\4.8 2014q3\arm-none-eabi\lib\armv7e-m\softfp\libm.a(lib_a-e_rem_pio2.o)
                0x08002590                __ieee754_rem_pio2
 .text.__kernel_cos
                0x080029d0      0x250 ..\..\..\..\..\..\..\Program Files (x86)\GNU Tools ARM Embedded\4.8 2014q3\arm-none-eabi\lib\armv7e-m\softfp\libm.a(lib_a-k_cos.o)
                0x080029d0                __kernel_cos
 .text.__kernel_rem_pio2
                0x08002c20      0x770 ..\..\..\..\..\..\..\Program Files (x86)\GNU Tools ARM Embedded\4.8 2014q3\arm-none-eabi\lib\armv7e-m\softfp\libm.a(lib_a-k_rem_pio2.o)
                0x08002c20                __kernel_rem_pio2
 .text.__kernel_sin
                0x08003390      0x170 ..\..\..\..\..\..\..\Program Files (x86)\GNU Tools ARM Embedded\4.8 2014q3\arm-none-eabi\lib\armv7e-m\softfp\libm.a(lib_a-k_sin.o)
                0x08003390                __kernel_sin
 .text.fabs     0x08003500        0x8 ..\..\..\..\..\..\..\Program Files (x86)\GNU Tools ARM Embedded\4.8 2014q3\arm-none-eabi\lib\armv7e-m\softfp\libm.a(lib_a-s_fabs.o)
                0x08003500                fabs
 .text.floor    0x08003508      0x120 ..\..\..\..\..\..\..\Program Files (x86)\GNU Tools ARM Embedded\4.8 2014q3\arm-none-eabi\lib\armv7e-m\softfp\libm.a(lib_a-s_floor.o)
                0x08003508                floor
 .text.scalbn   0x08003628      0x118 ..\..\..\..\..\..\..\Program Files (x86)\GNU Tools ARM Embedded\4.8 2014q3\arm-none-eabi\lib\armv7e-m\softfp\libm.a(lib_a-s_scalbn.o)
                0x08003628                scalbn
 .text.copysign
                0x08003740       0x14 ..\..\..\..\..\..\..\Program Files (x86)\GNU Tools ARM Embedded\4.8 2014q3\arm-none-eabi\lib\armv7e-m\softfp\libm.a(lib_a-s_copysign.o)
                0x08003740                copysign
 .text          0x08003754      0x370 c:/program files (x86)/gnu tools arm embedded/4.8 2014q3/bin/../lib/gcc/arm-none-eabi/4.8.4/armv7-m\libgcc.a(_arm_addsubdf3.o)
                0x08003754                __aeabi_drsub
                0x0800375c                __aeabi_dsub
                0x0800375c                __subdf3
                0x08003760                __aeabi_dadd
                0x08003760                __adddf3
                0x080039d8                __floatunsidf
                0x080039d8                __aeabi_ui2d
                0x080039f8                __floatsidf
                0x080039f8                __aeabi_i2d
                0x08003a1c                __aeabi_f2d
                0x08003a1c                __extendsfdf2
                0x08003a58                __floatundidf
                0x08003a58                __aeabi_ul2d
                0x08003a68                __floatdidf
                0x08003a68                __aeabi_l2d
 .text          0x08003ac4      0x424 c:/program files (x86)/gnu tools arm embedded/4.8 2014q3/bin/../lib/gcc/arm-none-eabi/4.8.4/armv7-m\libgcc.a(_arm_muldivdf3.o)
                0x08003ac4                __aeabi_dmul
                0x08003ac4                __muldf3
                0x08003d18                __divdf3
                0x08003d18                __aeabi_ddiv
 .text          0x08003ee8      0x110 c:/program files (x86)/gnu tools arm embedded/4.8 2014q3/bin/../lib/gcc/arm-none-eabi/4.8.4/armv7-m\libgcc.a(_arm_cmpdf2.o)
                0x08003ee8                __gtdf2
                0x08003ee8                __gedf2
                0x08003ef0                __ltdf2
                0x08003ef0                __ledf2
                0x08003ef8                __nedf2
                0x08003ef8                __eqdf2
                0x08003ef8                __cmpdf2
                0x08003f74                __aeabi_cdrcmple
                0x08003f84                __aeabi_cdcmpeq
                0x08003f84                __aeabi_cdcmple
                0x08003f94                __aeabi_dcmpeq
                0x08003fa8                __aeabi_dcmplt
                0x08003fbc                __aeabi_dcmple
                0x08003fd0                __aeabi_dcmpge
                0x08003fe4                __aeabi_dcmpgt
 .text          0x08003ff8       0x50 c:/program files (x86)/gnu tools arm embedded/4.8 2014q3/bin/../lib/gcc/arm-none-eabi/4.8.4/armv7-m\libgcc.a(_arm_fixdfsi.o)
                0x08003ff8                __aeabi_d2iz
                0x08003ff8                __fixdfsi
 .text          0x08004048       0xa0 c:/program files (x86)/gnu tools arm embedded/4.8 2014q3/bin/../lib/gcc/arm-none-eabi/4.8.4/armv7-m\libgcc.a(_arm_truncdfsf2.o)
                0x08004048                __truncdfsf2
                0x08004048                __aeabi_d2f
 .text          0x080040e8       0x4c c:/program files (x86)/gnu tools arm embedded/4.8 2014q3/bin/../lib/gcc/arm-none-eabi/4.8.4/armv7-m\libgcc.a(_arm_fixsfsi.o)
                0x080040e8                __aeabi_f2iz
                0x080040e8                __fixsfsi
 *(.init)
 *(.fini)
 *crtbegin.o(.ctors)
 *crtbegin?.o(.ctors)
 *(EXCLUDE_FILE(*crtend.o *crtend?.o) .ctors)
 *(SORT(.ctors.*))
 *(.ctors)
 *crtbegin.o(.dtors)
 *crtbegin?.o(.dtors)
 *(EXCLUDE_FILE(*crtend.o *crtend?.o) .dtors)
 *(SORT(.dtors.*))
 *(.dtors)
 *(.rodata*)
 .rodata        0x08004134       0x34 ..\obj\Biblioteka_Kalendarz.o
                0x08004134                dayspermonth
 .rodata.npio2_hw
                0x08004168       0x80 ..\..\..\..\..\..\..\Program Files (x86)\GNU Tools ARM Embedded\4.8 2014q3\arm-none-eabi\lib\armv7e-m\softfp\libm.a(lib_a-e_rem_pio2.o)
 .rodata.two_over_pi
                0x080041e8      0x108 ..\..\..\..\..\..\..\Program Files (x86)\GNU Tools ARM Embedded\4.8 2014q3\arm-none-eabi\lib\armv7e-m\softfp\libm.a(lib_a-e_rem_pio2.o)
 .rodata.init_jk
                0x080042f0       0x10 ..\..\..\..\..\..\..\Program Files (x86)\GNU Tools ARM Embedded\4.8 2014q3\arm-none-eabi\lib\armv7e-m\softfp\libm.a(lib_a-k_rem_pio2.o)
 .rodata.PIo2   0x08004300       0x40 ..\..\..\..\..\..\..\Program Files (x86)\GNU Tools ARM Embedded\4.8 2014q3\arm-none-eabi\lib\armv7e-m\softfp\libm.a(lib_a-k_rem_pio2.o)
 *(.eh_fram e*)

.glue_7         0x08004340        0x0
 .glue_7        0x00000000        0x0 linker stubs

.glue_7t        0x08004340        0x0
 .glue_7t       0x00000000        0x0 linker stubs

.vfp11_veneer   0x08004340        0x0
 .vfp11_veneer  0x00000000        0x0 linker stubs

.v4_bx          0x08004340        0x0
 .v4_bx         0x00000000        0x0 linker stubs

.iplt           0x08004340        0x0
 .iplt          0x00000000        0x0 ..\obj\stm32f10x_rtc.o

.rel.dyn        0x08004340        0x0
 .rel.iplt      0x00000000        0x0 ..\obj\stm32f10x_rtc.o

.ARM.extab
 *(.ARM.extab* .gnu.linkonce.armextab.*)
                0x08004340                __exidx_start = .

.ARM.exidx
 *(.ARM.exidx* .gnu.linkonce.armexidx.*)
                0x08004340                __exidx_end = .
                0x08004340                __etext = .
                0x08004340                _sidata = __etext

.data           0x20000000        0x4 load address 0x08004340
                0x20000000                __data_start__ = .
                0x20000000                _sdata = __data_start__
 *(vtable)
 *(.data*)
 .data          0x20000000        0x4 ..\obj\stm32f10x_it.o
                0x20000000                Takceptacja
                0x20000004                . = ALIGN (0x4)
                0x20000004                PROVIDE (__preinit_array_start, .)
 *(.preinit_array)
                0x20000004                PROVIDE (__preinit_array_end, .)
                0x20000004                . = ALIGN (0x4)
                0x20000004                PROVIDE (__init_array_start, .)
 *(SORT(.init_array.*))
 *(.init_array)
                0x20000004                PROVIDE (__init_array_end, .)
                0x20000004                . = ALIGN (0x4)
                0x20000004                PROVIDE (__fini_array_start, .)
 *(SORT(.fini_array.*))
 *(.fini_array)
                0x20000004                PROVIDE (__fini_array_end, .)
 *(.jcr*)
                0x20000004                . = ALIGN (0x4)
                0x20000004                __data_end__ = .
                0x20000004                _edata = __data_end__

.igot.plt       0x20000004        0x0 load address 0x08004344
 .igot.plt      0x00000000        0x0 ..\obj\stm32f10x_rtc.o

.bss            0x20000004       0x2c load address 0x08004344
                0x20000004                . = ALIGN (0x4)
                0x20000004                __bss_start__ = .
                0x20000004                _sbss = __bss_start__
 *(.bss*)
 .bss           0x20000004        0x1 ..\obj\stm32f10x_it.o
                0x20000004                ustaw
 *(COMMON)
 *fill*         0x20000005        0x3 
 COMMON         0x20000008        0xd ..\obj\main.o
                0x20000008                RTC_ActualTimeStruct
                0x2000000c                Tmux
                0x20000010                tik
                0x20000014                eTrybPracy
 *fill*         0x20000015        0x3 
 COMMON         0x20000018       0x17 ..\obj\stm32f10x_it.o
                0x20000018                RTC_ActualCallendarStruct
                0x2000002c                RTC_AlarmTimeStruct
                0x20000030                . = ALIGN (0x4)
 *fill*         0x2000002f        0x1 
                0x20000030                __bss_end__ = .
                0x20000030                _ebss = __bss_end__

.heap           0x20000030        0x0
                0x20000030                __end__ = .
                0x20000030                _end = __end__
                0x20000030                end = __end__
 *(.heap*)
                0x20000030                __HeapLimit = .

.co_stack       0x20000030      0x400 load address 0x08004370
                0x20000030                . = ALIGN (0x8)
 *(.co_stack .co_stack.*)
 .co_stack      0x20000030      0x400 ..\obj\startup_stm32f10x_md.o
                0x20000030                pulStack
                0x20005000                __StackTop = (ORIGIN (ram) + 0x5000)
                0x20004c00                __StackLimit = (__StackTop - SIZEOF (.co_stack))
                0x20005000                PROVIDE (__stack, __StackTop)
                0x00000001                ASSERT ((__StackLimit >= __HeapLimit), region ram  overflowed with stack)
LOAD ..\obj\stm32f10x_rtc.o
LOAD ..\obj\stm32f10x_tim.o
LOAD ..\obj\RTC_TimeAndCallendar.o
LOAD ..\obj\system_stm32f10x.o
LOAD ..\obj\stm32f10x_pwr.o
LOAD ..\obj\startup_stm32f10x_md.o
LOAD ..\obj\stm32f10x_gpio.o
LOAD ..\obj\system_init.o
LOAD ..\obj\Delays.o
LOAD ..\obj\main.o
LOAD ..\obj\printf.o
LOAD ..\obj\stm32f10x_rcc.o
LOAD ..\obj\stm32f10x_exti.o
LOAD ..\obj\Biblioteka_Kalendarz.o
LOAD ..\obj\stm32f10x_adc.o
LOAD ..\obj\stm32f10x_it.o
LOAD ..\obj\stm32f10x_dma.o
LOAD ..\obj\misc.o
LOAD ..\obj\stm32f10x_bkp.o
LOAD ..\obj\stm32f10x_iwdg.o
LOAD ..\..\..\..\..\..\..\Program Files (x86)\GNU Tools ARM Embedded\4.8 2014q3\arm-none-eabi\lib\armv7e-m\softfp\libm.a
START GROUP
LOAD c:/program files (x86)/gnu tools arm embedded/4.8 2014q3/bin/../lib/gcc/arm-none-eabi/4.8.4/armv7-m\libgcc.a
LOAD ..\..\..\..\..\..\..\Program Files (x86)\GNU Tools ARM Embedded\4.8 2014q3\arm-none-eabi\lib\armv7e-m\softfp\libg.a
LOAD ..\..\..\..\..\..\..\Program Files (x86)\GNU Tools ARM Embedded\4.8 2014q3\arm-none-eabi\lib\armv7e-m\softfp\libc.a
END GROUP
OUTPUT(NIXIEclock.elf elf32-littlearm)

.debug_info     0x00000000     0x6bee
 .debug_info    0x00000000      0x434 ..\obj\stm32f10x_rtc.o
 .debug_info    0x00000434     0x1c58 ..\obj\stm32f10x_tim.o
 .debug_info    0x0000208c      0x321 ..\obj\RTC_TimeAndCallendar.o
 .debug_info    0x000023ad      0x479 ..\obj\system_stm32f10x.o
 .debug_info    0x00002826      0x482 ..\obj\stm32f10x_pwr.o
 .debug_info    0x00002ca8       0xe9 ..\obj\startup_stm32f10x_md.o
 .debug_info    0x00002d91      0x6e7 ..\obj\stm32f10x_gpio.o
 .debug_info    0x00003478      0x777 ..\obj\system_init.o
 .debug_info    0x00003bef      0x65e ..\obj\Delays.o
 .debug_info    0x0000424d      0x426 ..\obj\main.o
 .debug_info    0x00004673      0x88d ..\obj\stm32f10x_rcc.o
 .debug_info    0x00004f00      0x341 ..\obj\stm32f10x_exti.o
 .debug_info    0x00005241      0x3f0 ..\obj\Biblioteka_Kalendarz.o
 .debug_info    0x00005631      0x8e3 ..\obj\stm32f10x_it.o
 .debug_info    0x00005f14      0x53d ..\obj\misc.o
 .debug_info    0x00006451      0x79d ..\obj\stm32f10x_bkp.o

.debug_abbrev   0x00000000     0x1673
 .debug_abbrev  0x00000000      0x18d ..\obj\stm32f10x_rtc.o
 .debug_abbrev  0x0000018d      0x1b0 ..\obj\stm32f10x_tim.o
 .debug_abbrev  0x0000033d      0x123 ..\obj\RTC_TimeAndCallendar.o
 .debug_abbrev  0x00000460      0x14c ..\obj\system_stm32f10x.o
 .debug_abbrev  0x000005ac      0x17f ..\obj\stm32f10x_pwr.o
 .debug_abbrev  0x0000072b       0xa7 ..\obj\startup_stm32f10x_md.o
 .debug_abbrev  0x000007d2      0x1c8 ..\obj\stm32f10x_gpio.o
 .debug_abbrev  0x0000099a      0x11f ..\obj\system_init.o
 .debug_abbrev  0x00000ab9      0x1de ..\obj\Delays.o
 .debug_abbrev  0x00000c97      0x16c ..\obj\main.o
 .debug_abbrev  0x00000e03      0x1ba ..\obj\stm32f10x_rcc.o
 .debug_abbrev  0x00000fbd      0x151 ..\obj\stm32f10x_exti.o
 .debug_abbrev  0x0000110e      0x13d ..\obj\Biblioteka_Kalendarz.o
 .debug_abbrev  0x0000124b      0x180 ..\obj\stm32f10x_it.o
 .debug_abbrev  0x000013cb      0x145 ..\obj\misc.o
 .debug_abbrev  0x00001510      0x163 ..\obj\stm32f10x_bkp.o

.debug_aranges  0x00000000      0xa48
 .debug_aranges
                0x00000000       0x88 ..\obj\stm32f10x_rtc.o
 .debug_aranges
                0x00000088      0x2f0 ..\obj\stm32f10x_tim.o
 .debug_aranges
                0x00000378       0x48 ..\obj\RTC_TimeAndCallendar.o
 .debug_aranges
                0x000003c0       0x38 ..\obj\system_stm32f10x.o
 .debug_aranges
                0x000003f8       0x60 ..\obj\stm32f10x_pwr.o
 .debug_aranges
                0x00000458       0x28 ..\obj\startup_stm32f10x_md.o
 .debug_aranges
                0x00000480       0xa8 ..\obj\stm32f10x_gpio.o
 .debug_aranges
                0x00000528       0x40 ..\obj\system_init.o
 .debug_aranges
                0x00000568       0x48 ..\obj\Delays.o
 .debug_aranges
                0x000005b0       0x68 ..\obj\main.o
 .debug_aranges
                0x00000618      0x118 ..\obj\stm32f10x_rcc.o
 .debug_aranges
                0x00000730       0x58 ..\obj\stm32f10x_exti.o
 .debug_aranges
                0x00000788       0x50 ..\obj\Biblioteka_Kalendarz.o
 .debug_aranges
                0x000007d8      0x1b8 ..\obj\stm32f10x_it.o
 .debug_aranges
                0x00000990       0x40 ..\obj\misc.o
 .debug_aranges
                0x000009d0       0x78 ..\obj\stm32f10x_bkp.o

.debug_ranges   0x00000000      0x948
 .debug_ranges  0x00000000       0x78 ..\obj\stm32f10x_rtc.o
 .debug_ranges  0x00000078      0x2e0 ..\obj\stm32f10x_tim.o
 .debug_ranges  0x00000358       0x38 ..\obj\RTC_TimeAndCallendar.o
 .debug_ranges  0x00000390       0x28 ..\obj\system_stm32f10x.o
 .debug_ranges  0x000003b8       0x50 ..\obj\stm32f10x_pwr.o
 .debug_ranges  0x00000408       0x18 ..\obj\startup_stm32f10x_md.o
 .debug_ranges  0x00000420       0x98 ..\obj\stm32f10x_gpio.o
 .debug_ranges  0x000004b8       0x30 ..\obj\system_init.o
 .debug_ranges  0x000004e8       0x38 ..\obj\Delays.o
 .debug_ranges  0x00000520       0x58 ..\obj\main.o
 .debug_ranges  0x00000578      0x108 ..\obj\stm32f10x_rcc.o
 .debug_ranges  0x00000680       0x48 ..\obj\stm32f10x_exti.o
 .debug_ranges  0x000006c8       0x40 ..\obj\Biblioteka_Kalendarz.o
 .debug_ranges  0x00000708      0x1a8 ..\obj\stm32f10x_it.o
 .debug_ranges  0x000008b0       0x30 ..\obj\misc.o
 .debug_ranges  0x000008e0       0x68 ..\obj\stm32f10x_bkp.o

.debug_line     0x00000000     0x36b6
 .debug_line    0x00000000      0x2ca ..\obj\stm32f10x_rtc.o
 .debug_line    0x000002ca      0xa73 ..\obj\stm32f10x_tim.o
 .debug_line    0x00000d3d      0x27f ..\obj\RTC_TimeAndCallendar.o
 .debug_line    0x00000fbc      0x205 ..\obj\system_stm32f10x.o
 .debug_line    0x000011c1      0x27c ..\obj\stm32f10x_pwr.o
 .debug_line    0x0000143d       0xa2 ..\obj\startup_stm32f10x_md.o
 .debug_line    0x000014df      0x3a7 ..\obj\stm32f10x_gpio.o
 .debug_line    0x00001886      0x2ad ..\obj\system_init.o
 .debug_line    0x00001b33      0x255 ..\obj\Delays.o
 .debug_line    0x00001d88      0x43e ..\obj\main.o
 .debug_line    0x000021c6      0x4b5 ..\obj\stm32f10x_rcc.o
 .debug_line    0x0000267b      0x29d ..\obj\stm32f10x_exti.o
 .debug_line    0x00002918      0x2b4 ..\obj\Biblioteka_Kalendarz.o
 .debug_line    0x00002bcc      0x627 ..\obj\stm32f10x_it.o
 .debug_line    0x000031f3      0x23d ..\obj\misc.o
 .debug_line    0x00003430      0x286 ..\obj\stm32f10x_bkp.o

.debug_str      0x00000000     0x2d5a
 .debug_str     0x00000000      0x33a ..\obj\stm32f10x_rtc.o
                                0x3aa (size before relaxing)
 .debug_str     0x0000033a      0xb80 ..\obj\stm32f10x_tim.o
                                0xde5 (size before relaxing)
 .debug_str     0x00000eba      0x1af ..\obj\RTC_TimeAndCallendar.o
                                0x30b (size before relaxing)
 .debug_str     0x00001069      0x173 ..\obj\system_stm32f10x.o
                                0x2f8 (size before relaxing)
 .debug_str     0x000011dc      0x127 ..\obj\stm32f10x_pwr.o
                                0x32a (size before relaxing)
 .debug_str     0x00001303       0xb0 ..\obj\startup_stm32f10x_md.o
                                0x147 (size before relaxing)
 .debug_str     0x000013b3      0x377 ..\obj\stm32f10x_gpio.o
                                0x521 (size before relaxing)
 .debug_str     0x0000172a      0x4e9 ..\obj\system_init.o
                                0x96a (size before relaxing)
 .debug_str     0x00001c13       0xf1 ..\obj\Delays.o
                                0x5b7 (size before relaxing)
 .debug_str     0x00001d04      0x1da ..\obj\main.o
                                0x433 (size before relaxing)
 .debug_str     0x00001ede      0x3e8 ..\obj\stm32f10x_rcc.o
                                0x622 (size before relaxing)
 .debug_str     0x000022c6      0x105 ..\obj\stm32f10x_exti.o
                                0x351 (size before relaxing)
 .debug_str     0x000023cb      0x12a ..\obj\Biblioteka_Kalendarz.o
                                0x339 (size before relaxing)
 .debug_str     0x000024f5      0x430 ..\obj\stm32f10x_it.o
                                0x86c (size before relaxing)
 .debug_str     0x00002925      0x10b ..\obj\misc.o
                                0x3c6 (size before relaxing)
 .debug_str     0x00002a30      0x32a ..\obj\stm32f10x_bkp.o
                                0x5bd (size before relaxing)

.comment        0x00000000       0x70
 .comment       0x00000000       0x70 ..\obj\stm32f10x_rtc.o
                                 0x71 (size before relaxing)
 .comment       0x00000000       0x71 ..\obj\stm32f10x_tim.o
 .comment       0x00000000       0x71 ..\obj\RTC_TimeAndCallendar.o
 .comment       0x00000000       0x71 ..\obj\system_stm32f10x.o
 .comment       0x00000000       0x71 ..\obj\stm32f10x_pwr.o
 .comment       0x00000000       0x71 ..\obj\startup_stm32f10x_md.o
 .comment       0x00000000       0x71 ..\obj\stm32f10x_gpio.o
 .comment       0x00000000       0x71 ..\obj\system_init.o
 .comment       0x00000000       0x71 ..\obj\Delays.o
 .comment       0x00000000       0x71 ..\obj\main.o
 .comment       0x00000000       0x71 ..\obj\stm32f10x_rcc.o
 .comment       0x00000000       0x71 ..\obj\stm32f10x_exti.o
 .comment       0x00000000       0x71 ..\obj\Biblioteka_Kalendarz.o
 .comment       0x00000000       0x71 ..\obj\stm32f10x_it.o
 .comment       0x00000000       0x71 ..\obj\misc.o
 .comment       0x00000000       0x71 ..\obj\stm32f10x_bkp.o

.ARM.attributes
                0x00000000       0x32
 .ARM.attributes
                0x00000000       0x33 ..\obj\stm32f10x_rtc.o
 .ARM.attributes
                0x00000033       0x33 ..\obj\stm32f10x_tim.o
 .ARM.attributes
                0x00000066       0x33 ..\obj\RTC_TimeAndCallendar.o
 .ARM.attributes
                0x00000099       0x33 ..\obj\system_stm32f10x.o
 .ARM.attributes
                0x000000cc       0x33 ..\obj\stm32f10x_pwr.o
 .ARM.attributes
                0x000000ff       0x33 ..\obj\startup_stm32f10x_md.o
 .ARM.attributes
                0x00000132       0x33 ..\obj\stm32f10x_gpio.o
 .ARM.attributes
                0x00000165       0x33 ..\obj\system_init.o
 .ARM.attributes
                0x00000198       0x33 ..\obj\Delays.o
 .ARM.attributes
                0x000001cb       0x33 ..\obj\main.o
 .ARM.attributes
                0x000001fe       0x33 ..\obj\stm32f10x_rcc.o
 .ARM.attributes
                0x00000231       0x33 ..\obj\stm32f10x_exti.o
 .ARM.attributes
                0x00000264       0x33 ..\obj\Biblioteka_Kalendarz.o
 .ARM.attributes
                0x00000297       0x33 ..\obj\stm32f10x_it.o
 .ARM.attributes
                0x000002ca       0x33 ..\obj\misc.o
 .ARM.attributes
                0x000002fd       0x33 ..\obj\stm32f10x_bkp.o
 .ARM.attributes
                0x00000330       0x32 ..\..\..\..\..\..\..\Program Files (x86)\GNU Tools ARM Embedded\4.8 2014q3\arm-none-eabi\lib\armv7e-m\softfp\libm.a(lib_a-s_sin.o)
 .ARM.attributes
                0x00000362       0x32 ..\..\..\..\..\..\..\Program Files (x86)\GNU Tools ARM Embedded\4.8 2014q3\arm-none-eabi\lib\armv7e-m\softfp\libm.a(lib_a-e_rem_pio2.o)
 .ARM.attributes
                0x00000394       0x32 ..\..\..\..\..\..\..\Program Files (x86)\GNU Tools ARM Embedded\4.8 2014q3\arm-none-eabi\lib\armv7e-m\softfp\libm.a(lib_a-k_cos.o)
 .ARM.attributes
                0x000003c6       0x32 ..\..\..\..\..\..\..\Program Files (x86)\GNU Tools ARM Embedded\4.8 2014q3\arm-none-eabi\lib\armv7e-m\softfp\libm.a(lib_a-k_rem_pio2.o)
 .ARM.attributes
                0x000003f8       0x32 ..\..\..\..\..\..\..\Program Files (x86)\GNU Tools ARM Embedded\4.8 2014q3\arm-none-eabi\lib\armv7e-m\softfp\libm.a(lib_a-k_sin.o)
 .ARM.attributes
                0x0000042a       0x32 ..\..\..\..\..\..\..\Program Files (x86)\GNU Tools ARM Embedded\4.8 2014q3\arm-none-eabi\lib\armv7e-m\softfp\libm.a(lib_a-s_fabs.o)
 .ARM.attributes
                0x0000045c       0x32 ..\..\..\..\..\..\..\Program Files (x86)\GNU Tools ARM Embedded\4.8 2014q3\arm-none-eabi\lib\armv7e-m\softfp\libm.a(lib_a-s_floor.o)
 .ARM.attributes
                0x0000048e       0x32 ..\..\..\..\..\..\..\Program Files (x86)\GNU Tools ARM Embedded\4.8 2014q3\arm-none-eabi\lib\armv7e-m\softfp\libm.a(lib_a-s_scalbn.o)
 .ARM.attributes
                0x000004c0       0x32 ..\..\..\..\..\..\..\Program Files (x86)\GNU Tools ARM Embedded\4.8 2014q3\arm-none-eabi\lib\armv7e-m\softfp\libm.a(lib_a-s_copysign.o)
 .ARM.attributes
                0x000004f2       0x1d c:/program files (x86)/gnu tools arm embedded/4.8 2014q3/bin/../lib/gcc/arm-none-eabi/4.8.4/armv7-m\libgcc.a(_arm_addsubdf3.o)
 .ARM.attributes
                0x0000050f       0x1d c:/program files (x86)/gnu tools arm embedded/4.8 2014q3/bin/../lib/gcc/arm-none-eabi/4.8.4/armv7-m\libgcc.a(_arm_muldivdf3.o)
 .ARM.attributes
                0x0000052c       0x1d c:/program files (x86)/gnu tools arm embedded/4.8 2014q3/bin/../lib/gcc/arm-none-eabi/4.8.4/armv7-m\libgcc.a(_arm_cmpdf2.o)
 .ARM.attributes
                0x00000549       0x1d c:/program files (x86)/gnu tools arm embedded/4.8 2014q3/bin/../lib/gcc/arm-none-eabi/4.8.4/armv7-m\libgcc.a(_arm_fixdfsi.o)
 .ARM.attributes
                0x00000566       0x1d c:/program files (x86)/gnu tools arm embedded/4.8 2014q3/bin/../lib/gcc/arm-none-eabi/4.8.4/armv7-m\libgcc.a(_arm_truncdfsf2.o)
 .ARM.attributes
                0x00000583       0x1d c:/program files (x86)/gnu tools arm embedded/4.8 2014q3/bin/../lib/gcc/arm-none-eabi/4.8.4/armv7-m\libgcc.a(_arm_fixsfsi.o)

.debug_frame    0x00000000     0x2124
 .debug_frame   0x00000000      0x194 ..\obj\stm32f10x_rtc.o
 .debug_frame   0x00000194      0xa20 ..\obj\stm32f10x_tim.o
 .debug_frame   0x00000bb4       0xd0 ..\obj\RTC_TimeAndCallendar.o
 .debug_frame   0x00000c84       0x80 ..\obj\system_stm32f10x.o
 .debug_frame   0x00000d04      0x108 ..\obj\stm32f10x_pwr.o
 .debug_frame   0x00000e0c       0x48 ..\obj\startup_stm32f10x_md.o
 .debug_frame   0x00000e54      0x210 ..\obj\stm32f10x_gpio.o
 .debug_frame   0x00001064       0xac ..\obj\system_init.o
 .debug_frame   0x00001110       0xc4 ..\obj\Delays.o
 .debug_frame   0x000011d4      0x148 ..\obj\main.o
 .debug_frame   0x0000131c      0x388 ..\obj\stm32f10x_rcc.o
 .debug_frame   0x000016a4       0xec ..\obj\stm32f10x_exti.o
 .debug_frame   0x00001790       0xe0 ..\obj\Biblioteka_Kalendarz.o
 .debug_frame   0x00001870      0x504 ..\obj\stm32f10x_it.o
 .debug_frame   0x00001d74       0x9c ..\obj\misc.o
 .debug_frame   0x00001e10      0x150 ..\obj\stm32f10x_bkp.o
 .debug_frame   0x00001f60       0x30 ..\..\..\..\..\..\..\Program Files (x86)\GNU Tools ARM Embedded\4.8 2014q3\arm-none-eabi\lib\armv7e-m\softfp\libm.a(lib_a-s_sin.o)
 .debug_frame   0x00001f90       0x38 ..\..\..\..\..\..\..\Program Files (x86)\GNU Tools ARM Embedded\4.8 2014q3\arm-none-eabi\lib\armv7e-m\softfp\libm.a(lib_a-e_rem_pio2.o)
 .debug_frame   0x00001fc8       0x38 ..\..\..\..\..\..\..\Program Files (x86)\GNU Tools ARM Embedded\4.8 2014q3\arm-none-eabi\lib\armv7e-m\softfp\libm.a(lib_a-k_cos.o)
 .debug_frame   0x00002000       0x3c ..\..\..\..\..\..\..\Program Files (x86)\GNU Tools ARM Embedded\4.8 2014q3\arm-none-eabi\lib\armv7e-m\softfp\libm.a(lib_a-k_rem_pio2.o)
 .debug_frame   0x0000203c       0x38 ..\..\..\..\..\..\..\Program Files (x86)\GNU Tools ARM Embedded\4.8 2014q3\arm-none-eabi\lib\armv7e-m\softfp\libm.a(lib_a-k_sin.o)
 .debug_frame   0x00002074       0x20 ..\..\..\..\..\..\..\Program Files (x86)\GNU Tools ARM Embedded\4.8 2014q3\arm-none-eabi\lib\armv7e-m\softfp\libm.a(lib_a-s_fabs.o)
 .debug_frame   0x00002094       0x38 ..\..\..\..\..\..\..\Program Files (x86)\GNU Tools ARM Embedded\4.8 2014q3\arm-none-eabi\lib\armv7e-m\softfp\libm.a(lib_a-s_floor.o)
 .debug_frame   0x000020cc       0x30 ..\..\..\..\..\..\..\Program Files (x86)\GNU Tools ARM Embedded\4.8 2014q3\arm-none-eabi\lib\armv7e-m\softfp\libm.a(lib_a-s_scalbn.o)
 .debug_frame   0x000020fc       0x28 ..\..\..\..\..\..\..\Program Files (x86)\GNU Tools ARM Embedded\4.8 2014q3\arm-none-eabi\lib\armv7e-m\softfp\libm.a(lib_a-s_copysign.o)
